(dp0
VServer
p1
Vcmsweb.cern.ch
p2
sVPort
p3
V
p4
sVRequestName
p5
V230521_055037:crovelli_crab__JPsito2Mu_MCTnP
p6
sVvoRole
p7
VNULL
p8
sVvoGroup
p9
g4
sVinstance
p10
Vprod
p11
sVOriginalConfig
p12
ccopy_reg
_reconstructor
p13
(cWMCore.Configuration
Configuration
p14
c__builtin__
object
p15
Ntp16
Rp17
(dp18
V_internal_sections
p19
(lp20
VGeneral
p21
aVJobType
p22
aVData
p23
aVSite
p24
aVUser
p25
aVDebug
p26
asg21
g13
(cWMCore.Configuration
ConfigSection
p27
g15
Ntp28
Rp29
(dp30
V_internal_documentation
p31
g4
sV_internal_name
p32
g21
sV_internal_settings
p33
c__builtin__
set
p34
((lp35
VtransferLogs
p36
aVworkArea
p37
aVtransferOutputs
p38
aVrequestName
p39
atp40
Rp41
sV_internal_docstrings
p42
(dp43
sV_internal_children
p44
g34
((lp45
tp46
Rp47
sV_internal_parent_ref
p48
NsV_internal_skipChecks
p49
I00
sg39
V_JPsito2Mu_MCTnP
p50
sg36
I01
sg38
I01
sg37
Vcrab_doubleMuMC_Run3SummerEE
p51
sbsg22
g13
(g27
g15
Ntp52
Rp53
(dp54
g31
g4
sg32
g22
sg33
g34
((lp55
VnumCores
p56
aVpsetName
p57
aVpluginName
p58
atp59
Rp60
sg42
(dp61
sg44
g34
((lp62
tp63
Rp64
sg48
Nsg49
I00
sg58
VAnalysis
p65
sg57
Vnanoanalyzercrab_cfg_22_DoubleMuonMC_Run3Summer22EE.py
p66
sg56
I1
sbsg23
g13
(g27
g15
Ntp67
Rp68
(dp69
g31
g4
sg32
g23
sg33
g34
((lp70
VoutLFNDirBase
p71
aVunitsPerJob
p72
aVsplitting
p73
aVinputDBS
p74
aVoutputDatasetTag
p75
aVinputDataset
p76
atp77
Rp78
sg42
(dp79
sg44
g34
((lp80
tp81
Rp82
sg48
Nsg49
I00
sg74
Vglobal
p83
sg73
VFileBased
p84
sg72
I2
sg76
V/JPsito2Mu_JPsiFilter_2MuFilter_TuneCP5_13p6TeV_pythia8/Run3Summer22EEMiniAODv3-124X_mcRun3_2022_realistic_postEE_v1-v2/MINIAODSIM
p85
sg75
VJPsito2Mu_MCTnP
p86
sg71
V/store/user/crovelli/DoubleMuMC/crab_doubleMuMC_Run3SummerEE
p87
sbsg24
g13
(g27
g15
Ntp88
Rp89
(dp90
g31
g4
sg32
g24
sg33
g34
((lp91
VstorageSite
p92
atp93
Rp94
sg42
(dp95
sg44
g34
((lp96
tp97
Rp98
sg48
Nsg49
I00
sg92
VT2_CH_CERN
p99
sbsg25
g13
(g27
g15
Ntp100
Rp101
(dp102
g31
g4
sg32
g25
sg33
g34
((lp103
tp104
Rp105
sg42
(dp106
sg44
g34
((lp107
tp108
Rp109
sg48
Nsg49
I00
sbsg26
g13
(g27
g15
Ntp110
Rp111
(dp112
g31
g4
sg32
g26
sg33
g34
((lp113
tp114
Rp115
sg42
(dp116
sg44
g34
((lp117
tp118
Rp119
sg48
Nsg49
I00
sbsbs.