ccopy_reg
_reconstructor
p0
(cFWCore.ParameterSet.Config
Process
p1
c__builtin__
object
p2
Ntp3
Rp4
(dp5
V_Process__name
p6
VNano
p7
sV_Process__filters
p8
(dp9
sV_Process__producers
p10
(dp11
VMEtoEDMConverter
p12
g0
(cFWCore.ParameterSet.Modules
EDProducer
p13
g2
Ntp14
Rp15
(dp16
V_TypedParameterizable__type
p17
g12
sV_Parameterizable__parameterNames
p18
(lp19
VName
p20
aVVerbosity
p21
aVFrequency
p22
aVMEPathToSave
p23
asV_isFrozen
p24
I00
sV_Parameterizable__validator
p25
Nsg20
g0
(cFWCore.ParameterSet.Types
string
p26
g2
Ntp27
Rp28
(dp29
g24
I00
sV_ParameterTypeBase__isTracked
p30
I00
sV_isModified
p31
I00
sV_value
p32
g12
sbsg31
I00
sg21
g0
(cFWCore.ParameterSet.Types
int32
p33
g2
Ntp34
Rp35
(dp36
g24
I00
sg30
I00
sg31
I00
sg32
I0
sbsg22
g0
(g33
g2
Ntp37
Rp38
(dp39
g24
I00
sg30
I00
sg31
I00
sg32
I50
sbsg23
g0
(g26
g2
Ntp40
Rp41
(dp42
g24
I00
sg30
I00
sg31
I00
sg32
V
p43
sbsV_filename
p44
V/cvmfs/cms.cern.ch/slc7_amd64_gcc10/cms/cmssw/CMSSW_12_4_3/python/DQMServices/Components/MEtoEDMConverter_cfi.py
p45
sV_lineNumber
p46
I3
sV_Labelable__label
p47
g12
sbssV_Process__switchproducers
p48
(dp49
sV_Process__source
p50
g0
(cFWCore.ParameterSet.Modules
Source
p51
g2
Ntp52
Rp53
(dp54
g17
VPoolSource
p55
sg18
(lp56
VfileNames
p57
asg24
I00
sg25
Nsg57
g0
(cFWCore.ParameterSet.Types
vstring
p58
c__builtin__
list
p59
(lp60
V/store/mc/Run3Summer22EEMiniAODv3/JPsito2Mu_JPsiFilter_2MuFilter_TuneCP5_13p6TeV_pythia8/MINIAODSIM/124X_mcRun3_2022_realistic_postEE_v1-v2/2550000/00165039-2147-4f59-ac73-212a30d8c167.root
p61
atp62
Rp63
(dp64
g24
I00
sg30
I00
sg31
I00
sV_nPerLine
p65
I1
sbsg31
I00
sg44
V/cvmfs/cms.cern.ch/slc7_amd64_gcc10/cms/cmssw/CMSSW_12_4_3/python/FWCore/ParameterSet/Modules.py
p66
sg46
I195
sbsV_Process__looper
p67
NsV_Process__subProcesses
p68
(lp69
sV_Process__schedule
p70
NsV_Process__analyzers
p71
(dp72
Vnano_
p73
g0
(cFWCore.ParameterSet.Modules
EDAnalyzer
p74
g2
Ntp75
Rp76
(dp77
g17
VNanoAnalyzerDoubleMuMC
p78
sg18
(lp79
Vmuons
p80
aVvertices
p81
aVHLT
p82
aVtriggerobjects
p83
aVl1MU
p84
aVpackedgenparticles
p85
asg24
I00
sg25
Nsg80
g0
(cFWCore.ParameterSet.Types
InputTag
p86
g2
Ntp87
Rp88
(dp89
g24
I00
sg30
I01
sg31
I00
sV_InputTag__moduleLabel
p90
VslimmedMuons
p91
sV_InputTag__productInstance
p92
g43
sV_InputTag__processName
p93
g43
sbsg31
I00
sg81
g0
(g86
g2
Ntp94
Rp95
(dp96
g24
I00
sg30
I01
sg31
I00
sg90
VofflineSlimmedPrimaryVertices
p97
sg92
g43
sg93
g43
sbsg82
g0
(g86
g2
Ntp98
Rp99
(dp100
g24
I00
sg30
I01
sg31
I00
sg90
VTriggerResults
p101
sg92
g43
sg93
g82
sbsg83
g0
(g86
g2
Ntp102
Rp103
(dp104
g24
I00
sg30
I01
sg31
I00
sg90
VslimmedPatTrigger
p105
sg92
g43
sg93
g43
sbsg84
g0
(g86
g2
Ntp106
Rp107
(dp108
g24
I00
sg30
I01
sg31
I00
sg90
VgmtStage2Digis
p109
sg92
VMuon
p110
sg93
VRECO
p111
sbsg85
g0
(g86
g2
Ntp112
Rp113
(dp114
g24
I00
sg30
I01
sg31
I00
sg90
VpackedGenParticles
p115
sg92
g43
sg93
g43
sbsg44
V/afs/cern.ch/work/c/crovelli/BPhys/TriggerRun3/src/Run3TriggerPerf/Ntuplizer/nanoanalyzercrab_cfg_22_DoubleMuonMC_Run3Summer22EE.py
p116
sg46
I55
sg47
g73
sbssV_Process__outputmodules
p117
(dp118
sV_Process__paths
p119
g0
(cFWCore.ParameterSet.DictTypes
SortedKeysDict
p120
c__builtin__
dict
p121
(dp122
Vp
p123
g0
(cFWCore.ParameterSet.SequenceTypes
Path
p124
g2
Ntp125
Rp126
(dp127
g24
I00
sV_seq
p128
g0
(cFWCore.ParameterSet.SequenceTypes
_SequenceCollection
p129
g2
Ntp130
Rp131
(dp132
V_collection
p133
(lp134
g76
asbsg31
I00
sV_tasks
p135
g0
(cFWCore.ParameterSet.OrderedSet
OrderedSet
p136
g2
Ntp137
Rp138
(dp139
Vend
p140
(lp141
Nag141
ag141
asVmap
p142
(dp143
sbsg47
g123
sbstp144
Rp145
(dp146
Vlist
p147
(lp148
g123
asbsV_Process__endpaths
p149
g0
(g120
g121
(dp150
tp151
Rp152
(dp153
g147
(lp154
sbsV_Process__finalpaths
p155
g0
(g120
g121
(dp156
tp157
Rp158
(dp159
g147
(lp160
sbsV_Process__sequences
p161
(dp162
VendOfProcess
p163
g0
(cFWCore.ParameterSet.SequenceTypes
Sequence
p164
g2
Ntp165
Rp166
(dp167
g24
I00
sg128
g0
(g129
g2
Ntp168
Rp169
(dp170
g133
(lp171
g15
asbsg31
I00
sg135
g0
(g136
g2
Ntp172
Rp173
(dp174
g140
(lp175
Nag175
ag175
asg142
(dp176
sbsg47
g163
sbssV_Process__tasks
p177
(dp178
sV_Process__conditionaltasks
p179
(dp180
sV_Process__services
p181
(dp182
VMessageLogger
p183
g0
(cFWCore.ParameterSet.Modules
Service
p184
g2
Ntp185
Rp186
(dp187
g17
g183
sg18
(lp188
VsuppressWarning
p189
aVsuppressFwkInfo
p190
aVsuppressInfo
p191
aVsuppressDebug
p192
aVdebugModules
p193
aVcout
p194
aVdefault
p195
aVcerr
p196
aVfiles
p197
asg24
I00
sg25
g0
(cFWCore.ParameterSet.Types
_OptionalParameter
p198
g2
Ntp199
Rp200
(dp201
g24
I00
sg30
I00
sg31
I00
sV_ProxyParameter__type
p202
g0
(cFWCore.ParameterSet.Types
_PSetTemplate
p203
g2
Ntp204
Rp205
(dp206
V_pset
p207
g0
(cFWCore.ParameterSet.Types
PSet
p208
g2
Ntp209
Rp210
(dp211
g24
I00
sg30
I01
sg31
I00
sg18
(lp212
VreportEvery
p213
aVlimit
p214
aVtimespan
p215
asg25
Nsg213
g0
(g33
g2
Ntp216
Rp217
(dp218
g24
I00
sg30
I00
sg31
I00
sg32
I1
sbsg214
g0
(g198
g2
Ntp219
Rp220
(dp221
g24
I00
sg30
I00
sg31
I00
sg202
g33
sV_ProxyParameter__value
p222
Nsbsg215
g0
(g198
g2
Ntp223
Rp224
(dp225
g24
I00
sg30
I00
sg31
I00
sg202
g33
sg222
NsbsbsV_PSetTemplate__value
p226
Nsbsg222
Nsbsg189
g0
(g58
g59
(lp227
tp228
Rp229
(dp230
g24
I00
sg30
I00
sg31
I00
sg65
I1
sbsg31
I00
sg190
g0
(g58
g59
(lp231
tp232
Rp233
(dp234
g24
I00
sg30
I00
sg31
I00
sg65
I1
sbsg191
g0
(g58
g59
(lp235
tp236
Rp237
(dp238
g24
I00
sg30
I00
sg31
I00
sg65
I1
sbsg192
g0
(g58
g59
(lp239
tp240
Rp241
(dp242
g24
I00
sg30
I00
sg31
I00
sg65
I1
sbsg193
g0
(g58
g59
(lp243
tp244
Rp245
(dp246
g24
I00
sg30
I00
sg31
I00
sg65
I1
sbsg194
g0
(g208
g2
Ntp247
Rp248
(dp249
g24
I00
sg30
I00
sg31
I00
sg18
(lp250
VnoLineBreaks
p251
aVnoTimeStamps
p252
aVlineLength
p253
aVthreshold
p254
aVstatisticsThreshold
p255
aVenableStatistics
p256
aVresetStatistics
p257
aVenable
p258
asg25
g200
sg251
g0
(g198
g2
Ntp259
Rp260
(dp261
g24
I00
sg30
I00
sg31
I00
sg202
cFWCore.ParameterSet.Types
bool
p262
sg222
Nsbsg252
g0
(g198
g2
Ntp263
Rp264
(dp265
g24
I00
sg30
I00
sg31
I00
sg202
g262
sg222
Nsbsg253
g0
(g198
g2
Ntp266
Rp267
(dp268
g24
I00
sg30
I00
sg31
I00
sg202
g33
sg222
Nsbsg254
g0
(g198
g2
Ntp269
Rp270
(dp271
g24
I00
sg30
I00
sg31
I00
sg202
g26
sg222
Nsbsg255
g0
(g198
g2
Ntp272
Rp273
(dp274
g24
I00
sg30
I00
sg31
I00
sg202
g26
sg222
Nsbsg256
g0
(g262
g2
Ntp275
Rp276
(dp277
g24
I00
sg30
I00
sg31
I00
sg32
I00
sbsg257
g0
(g262
g2
Ntp278
Rp279
(dp280
g24
I00
sg30
I00
sg31
I00
sg32
I00
sbsg258
g0
(g262
g2
Ntp281
Rp282
(dp283
g24
I00
sg30
I00
sg31
I00
sg32
I00
sbsbsg195
g0
(g208
g2
Ntp284
Rp285
(dp286
g24
I00
sg30
I00
sg31
I00
sg18
(lp287
g213
ag214
ag215
ag251
ag252
ag253
ag254
ag255
asg25
g200
sg213
g0
(g33
g2
Ntp288
Rp289
(dp290
g24
I00
sg30
I00
sg31
I00
sg32
I1
sbsg214
g0
(g198
g2
Ntp291
Rp292
(dp293
g24
I00
sg30
I00
sg31
I00
sg202
g33
sg222
Nsbsg215
g0
(g198
g2
Ntp294
Rp295
(dp296
g24
I00
sg30
I00
sg31
I00
sg202
g33
sg222
Nsbsg251
g0
(g262
g2
Ntp297
Rp298
(dp299
g24
I00
sg30
I00
sg31
I00
sg32
I00
sbsg252
g0
(g262
g2
Ntp300
Rp301
(dp302
g24
I00
sg30
I00
sg31
I00
sg32
I00
sbsg253
g0
(g33
g2
Ntp303
Rp304
(dp305
g24
I00
sg30
I00
sg31
I00
sg32
I80
sbsg254
g0
(g26
g2
Ntp306
Rp307
(dp308
g24
I00
sg30
I00
sg31
I00
sg32
VINFO
p309
sbsg255
g0
(g26
g2
Ntp310
Rp311
(dp312
g24
I00
sg30
I00
sg31
I00
sg32
g309
sbsbsg196
g0
(g208
g2
Ntp313
Rp314
(dp315
g24
I00
sg30
I00
sg31
I01
sg18
(lp316
g251
ag252
ag253
ag254
ag255
ag258
ag256
ag257
ag309
aVFwkReport
p317
ag195
aVRoot_NoDictionary
p318
aVFwkSummary
p319
asg25
g200
sg251
g0
(g198
g2
Ntp320
Rp321
(dp322
g24
I00
sg30
I00
sg31
I00
sg202
g262
sg222
Nsbsg252
g0
(g262
g2
Ntp323
Rp324
(dp325
g24
I00
sg30
I00
sg31
I00
sg32
I00
sbsg253
g0
(g198
g2
Ntp326
Rp327
(dp328
g24
I00
sg30
I00
sg31
I00
sg202
g33
sg222
Nsbsg254
g0
(g26
g2
Ntp329
Rp330
(dp331
g24
I00
sg30
I00
sg31
I00
sg32
g309
sbsg255
g0
(g26
g2
Ntp332
Rp333
(dp334
g24
I00
sg30
I00
sg31
I00
sg32
VWARNING
p335
sbsg258
g0
(g262
g2
Ntp336
Rp337
(dp338
g24
I00
sg30
I00
sg31
I00
sg32
I01
sbsg256
g0
(g262
g2
Ntp339
Rp340
(dp341
g24
I00
sg30
I00
sg31
I00
sg32
I01
sbsg257
g0
(g262
g2
Ntp342
Rp343
(dp344
g24
I00
sg30
I00
sg31
I00
sg32
I00
sbsg309
g0
(g208
g2
Ntp345
Rp346
(dp347
g24
I00
sg30
I00
sg31
I00
sg18
(lp348
g214
asg25
Nsg214
g0
(g33
g2
Ntp349
Rp350
(dp351
g24
I00
sg30
I00
sg31
I00
sg32
I0
sbsbsg317
g0
(g208
g2
Ntp352
Rp353
(dp354
g24
I00
sg30
I00
sg31
I01
sg18
(lp355
g213
ag214
asg25
Nsg213
g0
(g33
g2
Ntp356
Rp357
(dp358
g24
I00
sg30
I00
sg31
I01
sg32
I10000
sbsg214
g0
(g33
g2
Ntp359
Rp360
(dp361
g24
I00
sg30
I00
sg31
I00
sg32
I10000000
sbsbsg195
g0
(g208
g2
Ntp362
Rp363
(dp364
g24
I00
sg30
I00
sg31
I00
sg18
(lp365
g214
asg25
Nsg214
g0
(g33
g2
Ntp366
Rp367
(dp368
g24
I00
sg30
I00
sg31
I00
sg32
I10000000
sbsbsg318
g0
(g208
g2
Ntp369
Rp370
(dp371
g24
I00
sg30
I00
sg31
I00
sg18
(lp372
g214
asg25
Nsg214
g0
(g33
g2
Ntp373
Rp374
(dp375
g24
I00
sg30
I00
sg31
I00
sg32
I0
sbsbsg319
g0
(g208
g2
Ntp376
Rp377
(dp378
g24
I00
sg30
I00
sg31
I00
sg18
(lp379
g213
ag214
asg25
Nsg213
g0
(g33
g2
Ntp380
Rp381
(dp382
g24
I00
sg30
I00
sg31
I00
sg32
I1
sbsg214
g0
(g33
g2
Ntp383
Rp384
(dp385
g24
I00
sg30
I00
sg31
I00
sg32
I10000000
sbsbsbsg197
g0
(g208
g2
Ntp386
Rp387
(dp388
g24
I00
sg30
I00
sg31
I00
sg18
(lp389
sg25
g0
(g198
g2
Ntp390
Rp391
(dp392
g24
I00
sg30
I00
sg31
I00
sg202
g0
(g203
g2
Ntp393
Rp394
(dp395
g207
g0
(g208
g2
Ntp396
Rp397
(dp398
g24
I00
sg30
I01
sg31
I00
sg18
(lp399
g251
ag252
ag253
ag254
ag255
ag256
ag257
aVfilename
p400
aVextension
p401
aVoutput
p402
asg25
g200
sg251
g0
(g198
g2
Ntp403
Rp404
(dp405
g24
I00
sg30
I00
sg31
I00
sg202
g262
sg222
Nsbsg252
g0
(g198
g2
Ntp406
Rp407
(dp408
g24
I00
sg30
I00
sg31
I00
sg202
g262
sg222
Nsbsg253
g0
(g198
g2
Ntp409
Rp410
(dp411
g24
I00
sg30
I00
sg31
I00
sg202
g33
sg222
Nsbsg254
g0
(g198
g2
Ntp412
Rp413
(dp414
g24
I00
sg30
I00
sg31
I00
sg202
g26
sg222
Nsbsg255
g0
(g198
g2
Ntp415
Rp416
(dp417
g24
I00
sg30
I00
sg31
I00
sg202
g26
sg222
Nsbsg256
g0
(g262
g2
Ntp418
Rp419
(dp420
g24
I00
sg30
I00
sg31
I00
sg32
I00
sbsg257
g0
(g262
g2
Ntp421
Rp422
(dp423
g24
I00
sg30
I00
sg31
I00
sg32
I00
sbsg400
g0
(g198
g2
Ntp424
Rp425
(dp426
g24
I00
sg30
I00
sg31
I00
sg202
g26
sg222
Nsbsg401
g0
(g198
g2
Ntp427
Rp428
(dp429
g24
I00
sg30
I00
sg31
I00
sg202
g26
sg222
Nsbsg402
g0
(g198
g2
Ntp430
Rp431
(dp432
g24
I00
sg30
I00
sg31
I00
sg202
g26
sg222
Nsbsbsg226
Nsbsg222
Nsbsbsg44
g66
sg46
I13
sV_inProcess
p433
I00
sbsVDQMStore
p434
g0
(g184
g2
Ntp435
Rp436
(dp437
g17
g434
sg18
(lp438
sg24
I00
sg25
Nsg31
I00
sg44
g66
sg46
I13
sg433
I01
sbsVTFileService
p439
g0
(g184
g2
Ntp440
Rp441
(dp442
g17
g439
sg18
(lp443
VfileName
p444
asg24
I00
sg25
Nsg444
g0
(g26
g2
Ntp445
Rp446
(dp447
g24
I00
sg30
I01
sg31
I00
sg32
VJPsi_DoubleMuon_MC.root
p448
sbsg31
I00
sg44
g66
sg46
I13
sg433
I01
sbssV_Process__essources
p449
(dp450
VGlobalTag
p451
g0
(cFWCore.ParameterSet.Modules
ESSource
p452
g2
Ntp453
Rp454
(dp455
g17
VPoolDBESSource
p456
sg18
(lp457
VDBParameters
p458
aVconnect
p459
aVglobaltag
p460
aVsnapshotTime
p461
aVtoGet
p462
aVDumpStat
p463
aVReconnectEachRun
p464
aVRefreshAlways
p465
aVRefreshEachRun
p466
aVRefreshOpenIOVs
p467
aVpfnPostfix
p468
aVpfnPrefix
p469
asg24
I00
sg25
Nsg458
g0
(g208
g2
Ntp470
Rp471
(dp472
g24
I00
sg30
I01
sg31
I00
sg18
(lp473
VauthenticationPath
p474
aVauthenticationSystem
p475
aVsecurity
p476
aVmessageLevel
p477
aVconnectionTimeout
p478
asg25
Nsg474
g0
(g26
g2
Ntp479
Rp480
(dp481
g24
I00
sg30
I00
sg31
I00
sg32
g43
sbsg475
g0
(g33
g2
Ntp482
Rp483
(dp484
g24
I00
sg30
I00
sg31
I00
sg32
I0
sbsg476
g0
(g26
g2
Ntp485
Rp486
(dp487
g24
I00
sg30
I00
sg31
I00
sg32
g43
sbsg477
g0
(g33
g2
Ntp488
Rp489
(dp490
g24
I00
sg30
I00
sg31
I00
sg32
I0
sbsg478
g0
(g33
g2
Ntp491
Rp492
(dp493
g24
I00
sg30
I00
sg31
I00
sg32
I0
sbsbsg31
I01
sg459
g0
(g26
g2
Ntp494
Rp495
(dp496
g24
I00
sg30
I01
sg31
I00
sg32
Vfrontier://FrontierProd/CMS_CONDITIONS
p497
sbsg460
g0
(g26
g2
Ntp498
Rp499
(dp500
g24
I00
sg30
I01
sg31
I01
sg32
V124X_mcRun3_2022_realistic_postEE_v1
p501
sbsg461
g0
(g26
g2
Ntp502
Rp503
(dp504
g24
I00
sg30
I01
sg31
I00
sg32
g43
sbsg462
g0
(cFWCore.ParameterSet.Types
VPSet
p505
g59
(lp506
tp507
Rp508
(dp509
g24
I00
sg30
I01
sg31
I00
sg65
I1
sbsg463
g0
(g262
g2
Ntp510
Rp511
(dp512
g24
I00
sg30
I00
sg31
I00
sg32
I00
sbsg464
g0
(g262
g2
Ntp513
Rp514
(dp515
g24
I00
sg30
I00
sg31
I00
sg32
I00
sbsg465
g0
(g262
g2
Ntp516
Rp517
(dp518
g24
I00
sg30
I00
sg31
I00
sg32
I00
sbsg466
g0
(g262
g2
Ntp519
Rp520
(dp521
g24
I00
sg30
I00
sg31
I00
sg32
I00
sbsg467
g0
(g262
g2
Ntp522
Rp523
(dp524
g24
I00
sg30
I00
sg31
I00
sg32
I00
sbsg468
g0
(g26
g2
Ntp525
Rp526
(dp527
g24
I00
sg30
I00
sg31
I00
sg32
g43
sbsg469
g0
(g26
g2
Ntp528
Rp529
(dp530
g24
I00
sg30
I00
sg31
I00
sg32
g43
sbsg44
V/cvmfs/cms.cern.ch/slc7_amd64_gcc10/cms/cmssw/CMSSW_12_4_3/python/CondCore/ESSources/CondDBESSource_cfi.py
p531
sg46
I8
sg47
g451
sbsVHcalTimeSlewEP
p532
g0
(g452
g2
Ntp533
Rp534
(dp535
g17
g532
sg18
(lp536
VappendToDataLabel
p537
aVtimeSlewParametersM2
p538
aVtimeSlewParametersM3
p539
asg24
I00
sg25
Nsg537
g0
(g26
g2
Ntp540
Rp541
(dp542
g24
I00
sg30
I01
sg31
I00
sg32
VHBHE
p543
sbsg31
I00
sg538
g0
(g505
g59
(lp544
g0
(g208
g2
Ntp545
Rp546
(dp547
g24
I00
sg30
I01
sg31
I00
sg18
(lp548
Vtzero
p549
aVslope
p550
aVtmax
p551
asg25
Nsg549
g0
(cFWCore.ParameterSet.Types
double
p552
g2
Ntp553
Rp554
(dp555
g24
I00
sg30
I01
sg31
I00
sg32
F23.960177
sbsg550
g0
(g552
g2
Ntp556
Rp557
(dp558
g24
I00
sg30
I01
sg31
I00
sg32
F-3.178648
sbsg551
g0
(g552
g2
Ntp559
Rp560
(dp561
g24
I00
sg30
I01
sg31
I00
sg32
F16.0
sbsbag0
(g208
g2
Ntp562
Rp563
(dp564
g24
I00
sg30
I01
sg31
I00
sg18
(lp565
g549
ag550
ag551
asg25
Nsg549
g0
(g552
g2
Ntp566
Rp567
(dp568
g24
I00
sg30
I01
sg31
I00
sg32
F11.977461
sbsg550
g0
(g552
g2
Ntp569
Rp570
(dp571
g24
I00
sg30
I01
sg31
I00
sg32
F-1.5610227
sbsg551
g0
(g552
g2
Ntp572
Rp573
(dp574
g24
I00
sg30
I01
sg31
I00
sg32
F10.0
sbsbag0
(g208
g2
Ntp575
Rp576
(dp577
g24
I00
sg30
I01
sg31
I00
sg18
(lp578
g549
ag550
ag551
asg25
Nsg549
g0
(g552
g2
Ntp579
Rp580
(dp581
g24
I00
sg30
I01
sg31
I00
sg32
F9.109694
sbsg550
g0
(g552
g2
Ntp582
Rp583
(dp584
g24
I00
sg30
I01
sg31
I00
sg32
F-1.075824
sbsg551
g0
(g552
g2
Ntp585
Rp586
(dp587
g24
I00
sg30
I01
sg31
I00
sg32
F6.25
sbsbatp588
Rp589
(dp590
g24
I00
sg30
I01
sg31
I00
sg65
I1
sbsg539
g0
(g505
g59
(lp591
g0
(g208
g2
Ntp592
Rp593
(dp594
g24
I00
sg30
I01
sg31
I00
sg18
(lp595
Vcap
p596
aVtspar0
p597
aVtspar1
p598
aVtspar2
p599
aVtspar0_siPM
p600
aVtspar1_siPM
p601
aVtspar2_siPM
p602
asg25
Nsg596
g0
(g552
g2
Ntp603
Rp604
(dp605
g24
I00
sg30
I01
sg31
I00
sg32
F6.0
sbsg597
g0
(g552
g2
Ntp606
Rp607
(dp608
g24
I00
sg30
I01
sg31
I00
sg32
F12.2999
sbsg598
g0
(g552
g2
Ntp609
Rp610
(dp611
g24
I00
sg30
I01
sg31
I00
sg32
F-2.19142
sbsg599
g0
(g552
g2
Ntp612
Rp613
(dp614
g24
I00
sg30
I01
sg31
I00
sg32
F0.0
sbsg600
g0
(g552
g2
Ntp615
Rp616
(dp617
g24
I00
sg30
I01
sg31
I00
sg32
F0.0
sbsg601
g0
(g552
g2
Ntp618
Rp619
(dp620
g24
I00
sg30
I01
sg31
I00
sg32
F0.0
sbsg602
g0
(g552
g2
Ntp621
Rp622
(dp623
g24
I00
sg30
I01
sg31
I00
sg32
F0.0
sbsbag0
(g208
g2
Ntp624
Rp625
(dp626
g24
I00
sg30
I01
sg31
I00
sg18
(lp627
g596
ag597
ag598
ag599
ag600
ag601
ag602
asg25
Nsg596
g0
(g552
g2
Ntp628
Rp629
(dp630
g24
I00
sg30
I01
sg31
I00
sg32
F6.0
sbsg597
g0
(g552
g2
Ntp631
Rp632
(dp633
g24
I00
sg30
I01
sg31
I00
sg32
F15.5
sbsg598
g0
(g552
g2
Ntp634
Rp635
(dp636
g24
I00
sg30
I01
sg31
I00
sg32
F-3.2
sbsg599
g0
(g552
g2
Ntp637
Rp638
(dp639
g24
I00
sg30
I01
sg31
I00
sg32
F32.0
sbsg600
g0
(g552
g2
Ntp640
Rp641
(dp642
g24
I00
sg30
I01
sg31
I00
sg32
F0.0
sbsg601
g0
(g552
g2
Ntp643
Rp644
(dp645
g24
I00
sg30
I01
sg31
I00
sg32
F0.0
sbsg602
g0
(g552
g2
Ntp646
Rp647
(dp648
g24
I00
sg30
I01
sg31
I00
sg32
F0.0
sbsbag0
(g208
g2
Ntp649
Rp650
(dp651
g24
I00
sg30
I01
sg31
I00
sg18
(lp652
g596
ag597
ag598
ag599
ag600
ag601
ag602
asg25
Nsg596
g0
(g552
g2
Ntp653
Rp654
(dp655
g24
I00
sg30
I01
sg31
I00
sg32
F6.0
sbsg597
g0
(g552
g2
Ntp656
Rp657
(dp658
g24
I00
sg30
I01
sg31
I00
sg32
F12.2999
sbsg598
g0
(g552
g2
Ntp659
Rp660
(dp661
g24
I00
sg30
I01
sg31
I00
sg32
F-2.19142
sbsg599
g0
(g552
g2
Ntp662
Rp663
(dp664
g24
I00
sg30
I01
sg31
I00
sg32
F0.0
sbsg600
g0
(g552
g2
Ntp665
Rp666
(dp667
g24
I00
sg30
I01
sg31
I00
sg32
F0.0
sbsg601
g0
(g552
g2
Ntp668
Rp669
(dp670
g24
I00
sg30
I01
sg31
I00
sg32
F0.0
sbsg602
g0
(g552
g2
Ntp671
Rp672
(dp673
g24
I00
sg30
I01
sg31
I00
sg32
F0.0
sbsbag0
(g208
g2
Ntp674
Rp675
(dp676
g24
I00
sg30
I01
sg31
I00
sg18
(lp677
g596
ag597
ag598
ag599
ag600
ag601
ag602
asg25
Nsg596
g0
(g552
g2
Ntp678
Rp679
(dp680
g24
I00
sg30
I01
sg31
I00
sg32
F6.0
sbsg597
g0
(g552
g2
Ntp681
Rp682
(dp683
g24
I00
sg30
I01
sg31
I00
sg32
F12.2999
sbsg598
g0
(g552
g2
Ntp684
Rp685
(dp686
g24
I00
sg30
I01
sg31
I00
sg32
F-2.19142
sbsg599
g0
(g552
g2
Ntp687
Rp688
(dp689
g24
I00
sg30
I01
sg31
I00
sg32
F0.0
sbsg600
g0
(g552
g2
Ntp690
Rp691
(dp692
g24
I00
sg30
I01
sg31
I00
sg32
F0.0
sbsg601
g0
(g552
g2
Ntp693
Rp694
(dp695
g24
I00
sg30
I01
sg31
I00
sg32
F0.0
sbsg602
g0
(g552
g2
Ntp696
Rp697
(dp698
g24
I00
sg30
I01
sg31
I00
sg32
F0.0
sbsbatp699
Rp700
(dp701
g24
I00
sg30
I01
sg31
I00
sg65
I1
sbsg44
V/cvmfs/cms.cern.ch/slc7_amd64_gcc10/cms/cmssw/CMSSW_12_4_3/python/CalibCalorimetry/HcalPlugins/HcalTimeSlew_cff.py
p702
sg46
I3
sg47
g532
sbsVes_hardcode
p703
g0
(g452
g2
Ntp704
Rp705
(dp706
g17
VHcalHardcodeCalibrations
p707
sg18
(lp708
g462
aViLumi
p709
aVHBRecalibration
p710
aVHBreCalibCutoff
p711
aVHBmeanenergies
p712
aVHERecalibration
p713
aVHEreCalibCutoff
p714
aVHEmeanenergies
p715
aVHFRecalibration
p716
aVHFRecalParameterBlock
p717
aVGainWidthsForTrigPrims
p718
aVuseHBUpgrade
p719
aVuseHEUpgrade
p720
aVuseHFUpgrade
p721
aVuseHOUpgrade
p722
aVtestHFQIE10
p723
aVtestHEPlan1
p724
aVkillHE
p725
aVuseLayer0Weight
p726
aVuseIeta18depth1
p727
aVhb
p728
aVhe
p729
aVhf
p730
aVho
p731
aVhbUpgrade
p732
aVheUpgrade
p733
aVhfUpgrade
p734
aVSiPMCharacteristics
p735
asg24
I00
sg25
Nsg462
g0
(g58
g59
(lp736
VGainWidths
p737
atp738
Rp739
(dp740
g24
I00
sg30
I00
sg31
I00
sg65
I1
sbsg31
I00
sg709
g0
(g552
g2
Ntp741
Rp742
(dp743
g24
I00
sg30
I01
sg31
I00
sg32
F-1.0
sbsg710
g0
(g262
g2
Ntp744
Rp745
(dp746
g24
I00
sg30
I01
sg31
I00
sg32
I00
sbsg711
g0
(g552
g2
Ntp747
Rp748
(dp749
g24
I00
sg30
I01
sg31
I00
sg32
F20.0
sbsg712
g0
(cFWCore.ParameterSet.Types
FileInPath
p750
g2
Ntp751
Rp752
(dp753
g24
I00
sg30
I01
sg31
I00
sg32
VCalibCalorimetry/HcalPlugins/data/meanenergiesHB.txt
p754
sbsg713
g0
(g262
g2
Ntp755
Rp756
(dp757
g24
I00
sg30
I01
sg31
I00
sg32
I00
sbsg714
g0
(g552
g2
Ntp758
Rp759
(dp760
g24
I00
sg30
I01
sg31
I00
sg32
F20.0
sbsg715
g0
(g750
g2
Ntp761
Rp762
(dp763
g24
I00
sg30
I01
sg31
I00
sg32
VCalibCalorimetry/HcalPlugins/data/meanenergiesHE.txt
p764
sbsg716
g0
(g262
g2
Ntp765
Rp766
(dp767
g24
I00
sg30
I01
sg31
I00
sg32
I00
sbsg717
g0
(g208
g2
Ntp768
Rp769
(dp770
g24
I00
sg30
I01
sg31
I00
sg18
(lp771
VHFdepthOneParameterA
p772
aVHFdepthOneParameterB
p773
aVHFdepthTwoParameterA
p774
aVHFdepthTwoParameterB
p775
asg25
Nsg772
g0
(cFWCore.ParameterSet.Types
vdouble
p776
g59
(lp777
F0.004123
aF0.00602
aF0.008201
aF0.010489
aF0.013379
aF0.016997
aF0.021464
aF0.027371
aF0.034195
aF0.044807
aF0.058939
aF0.125497
atp778
Rp779
(dp780
g24
I00
sg30
I01
sg31
I00
sbsg773
g0
(g776
g59
(lp781
F-4e-06
aF-2e-06
aF0.0
aF4e-06
aF1.5e-05
aF2.6e-05
aF6.3e-05
aF8.4e-05
aF0.00016
aF0.000107
aF0.000425
aF0.000209
atp782
Rp783
(dp784
g24
I00
sg30
I01
sg31
I00
sbsg774
g0
(g776
g59
(lp785
F0.002861
aF0.004168
aF0.0064
aF0.008388
aF0.011601
aF0.014425
aF0.018633
aF0.023232
aF0.028274
aF0.035447
aF0.051579
aF0.086593
atp786
Rp787
(dp788
g24
I00
sg30
I01
sg31
I00
sbsg775
g0
(g776
g59
(lp789
F-2e-06
aF-0.0
aF-7e-06
aF-6e-06
aF-2e-06
aF1e-06
aF1.9e-05
aF3.1e-05
aF6.7e-05
aF1.2e-05
aF0.000157
aF-3e-06
atp790
Rp791
(dp792
g24
I00
sg30
I01
sg31
I00
sbsg47
g717
sbsg718
g0
(g262
g2
Ntp793
Rp794
(dp795
g24
I00
sg30
I01
sg31
I00
sg32
I00
sbsg719
g0
(g262
g2
Ntp796
Rp797
(dp798
g24
I00
sg30
I01
sg31
I00
sg32
I00
sbsg720
g0
(g262
g2
Ntp799
Rp800
(dp801
g24
I00
sg30
I01
sg31
I00
sg32
I00
sbsg721
g0
(g262
g2
Ntp802
Rp803
(dp804
g24
I00
sg30
I01
sg31
I00
sg32
I00
sbsg722
g0
(g262
g2
Ntp805
Rp806
(dp807
g24
I00
sg30
I01
sg31
I00
sg32
I01
sbsg723
g0
(g262
g2
Ntp808
Rp809
(dp810
g24
I00
sg30
I01
sg31
I00
sg32
I00
sbsg724
g0
(g262
g2
Ntp811
Rp812
(dp813
g24
I00
sg30
I01
sg31
I00
sg32
I00
sbsg725
g0
(g262
g2
Ntp814
Rp815
(dp816
g24
I00
sg30
I01
sg31
I00
sg32
I00
sbsg726
g0
(g262
g2
Ntp817
Rp818
(dp819
g24
I00
sg30
I01
sg31
I00
sg32
I00
sbsg727
g0
(g262
g2
Ntp820
Rp821
(dp822
g24
I00
sg30
I01
sg31
I00
sg32
I01
sbsg728
g0
(g208
g2
Ntp823
Rp824
(dp825
g24
I00
sg30
I01
sg31
I00
sg18
(lp826
Vpedestal
p827
aVpedestalWidth
p828
aVgain
p829
aVgainWidth
p830
aVzsThreshold
p831
aVqieType
p832
aVqieOffset
p833
aVqieSlope
p834
aVmcShape
p835
aVrecoShape
p836
aVphotoelectronsToAnalog
p837
aVdarkCurrent
p838
aVnoiseCorrelation
p839
aVdoRadiationDamage
p840
asg25
Nsg827
g0
(g552
g2
Ntp841
Rp842
(dp843
g24
I00
sg30
I01
sg31
I00
sg32
F3.285
sbsg828
g0
(g552
g2
Ntp844
Rp845
(dp846
g24
I00
sg30
I01
sg31
I00
sg32
F0.809
sbsg829
g0
(g776
g59
(lp847
F0.19
atp848
Rp849
(dp850
g24
I00
sg30
I01
sg31
I00
sbsg830
g0
(g776
g59
(lp851
F0.0
atp852
Rp853
(dp854
g24
I00
sg30
I01
sg31
I00
sbsg831
g0
(g33
g2
Ntp855
Rp856
(dp857
g24
I00
sg30
I01
sg31
I00
sg32
I8
sbsg832
g0
(g33
g2
Ntp858
Rp859
(dp860
g24
I00
sg30
I01
sg31
I00
sg32
I0
sbsg833
g0
(g776
g59
(lp861
F-0.49
aF1.8
aF7.2
aF37.9
atp862
Rp863
(dp864
g24
I00
sg30
I01
sg31
I00
sbsg834
g0
(g776
g59
(lp865
F0.912
aF0.917
aF0.922
aF0.923
atp866
Rp867
(dp868
g24
I00
sg30
I01
sg31
I00
sbsg835
g0
(g33
g2
Ntp869
Rp870
(dp871
g24
I00
sg30
I01
sg31
I00
sg32
I125
sbsg836
g0
(g33
g2
Ntp872
Rp873
(dp874
g24
I00
sg30
I01
sg31
I00
sg32
I105
sbsg837
g0
(g552
g2
Ntp875
Rp876
(dp877
g24
I00
sg30
I01
sg31
I00
sg32
F0.3305
sbsg838
g0
(g776
g59
(lp878
F0.0
atp879
Rp880
(dp881
g24
I00
sg30
I01
sg31
I00
sbsg839
g0
(g776
g59
(lp882
F0.0
atp883
Rp884
(dp885
g24
I00
sg30
I01
sg31
I00
sbsg840
g0
(g262
g2
Ntp886
Rp887
(dp888
g24
I00
sg30
I01
sg31
I00
sg32
I00
sbsbsg729
g0
(g208
g2
Ntp889
Rp890
(dp891
g24
I00
sg30
I01
sg31
I00
sg18
(lp892
g827
ag828
ag829
ag830
ag831
ag832
ag833
ag834
ag835
ag836
ag837
ag838
ag839
ag840
asg25
Nsg827
g0
(g552
g2
Ntp893
Rp894
(dp895
g24
I00
sg30
I01
sg31
I00
sg32
F3.163
sbsg828
g0
(g552
g2
Ntp896
Rp897
(dp898
g24
I00
sg30
I01
sg31
I00
sg32
F0.9698
sbsg829
g0
(g776
g59
(lp899
F0.23
atp900
Rp901
(dp902
g24
I00
sg30
I01
sg31
I00
sbsg830
g0
(g776
g59
(lp903
I0
atp904
Rp905
(dp906
g24
I00
sg30
I01
sg31
I00
sbsg831
g0
(g33
g2
Ntp907
Rp908
(dp909
g24
I00
sg30
I01
sg31
I00
sg32
I9
sbsg832
g0
(g33
g2
Ntp910
Rp911
(dp912
g24
I00
sg30
I01
sg31
I00
sg32
I0
sbsg833
g0
(g776
g59
(lp913
F-0.38
aF2.0
aF7.6
aF39.6
atp914
Rp915
(dp916
g24
I00
sg30
I01
sg31
I00
sbsg834
g0
(g776
g59
(lp917
F0.912
aF0.916
aF0.92
aF0.922
atp918
Rp919
(dp920
g24
I00
sg30
I01
sg31
I00
sbsg835
g0
(g33
g2
Ntp921
Rp922
(dp923
g24
I00
sg30
I01
sg31
I00
sg32
I125
sbsg836
g0
(g33
g2
Ntp924
Rp925
(dp926
g24
I00
sg30
I01
sg31
I00
sg32
I105
sbsg837
g0
(g552
g2
Ntp927
Rp928
(dp929
g24
I00
sg30
I01
sg31
I00
sg32
F0.3305
sbsg838
g0
(g776
g59
(lp930
F0.0
atp931
Rp932
(dp933
g24
I00
sg30
I01
sg31
I00
sbsg839
g0
(g776
g59
(lp934
F0.0
atp935
Rp936
(dp937
g24
I00
sg30
I01
sg31
I00
sbsg840
g0
(g262
g2
Ntp938
Rp939
(dp940
g24
I00
sg30
I01
sg31
I00
sg32
I00
sbsbsg730
g0
(g208
g2
Ntp941
Rp942
(dp943
g24
I00
sg30
I01
sg31
I00
sg18
(lp944
g827
ag828
ag829
ag830
ag831
ag832
ag833
ag834
ag835
ag836
ag837
ag838
ag839
ag840
asg25
Nsg827
g0
(g552
g2
Ntp945
Rp946
(dp947
g24
I00
sg30
I01
sg31
I00
sg32
F9.354
sbsg828
g0
(g552
g2
Ntp948
Rp949
(dp950
g24
I00
sg30
I01
sg31
I00
sg32
F2.516
sbsg829
g0
(g776
g59
(lp951
F0.14
aF0.135
atp952
Rp953
(dp954
g24
I00
sg30
I01
sg31
I00
sbsg830
g0
(g776
g59
(lp955
F0.0
aF0.0
atp956
Rp957
(dp958
g24
I00
sg30
I01
sg31
I00
sbsg831
g0
(g33
g2
Ntp959
Rp960
(dp961
g24
I00
sg30
I01
sg31
I00
sg32
I-9999
sbsg832
g0
(g33
g2
Ntp962
Rp963
(dp964
g24
I00
sg30
I01
sg31
I00
sg32
I0
sbsg833
g0
(g776
g59
(lp965
F-0.87
aF1.4
aF7.8
aF-29.6
atp966
Rp967
(dp968
g24
I00
sg30
I01
sg31
I00
sbsg834
g0
(g776
g59
(lp969
F0.359
aF0.358
aF0.36
aF0.367
atp970
Rp971
(dp972
g24
I00
sg30
I01
sg31
I00
sbsg835
g0
(g33
g2
Ntp973
Rp974
(dp975
g24
I00
sg30
I01
sg31
I00
sg32
I301
sbsg836
g0
(g33
g2
Ntp976
Rp977
(dp978
g24
I00
sg30
I01
sg31
I00
sg32
I301
sbsg837
g0
(g552
g2
Ntp979
Rp980
(dp981
g24
I00
sg30
I01
sg31
I00
sg32
F0.0
sbsg838
g0
(g776
g59
(lp982
F0.0
atp983
Rp984
(dp985
g24
I00
sg30
I01
sg31
I00
sbsg839
g0
(g776
g59
(lp986
F0.0
atp987
Rp988
(dp989
g24
I00
sg30
I01
sg31
I00
sbsg840
g0
(g262
g2
Ntp990
Rp991
(dp992
g24
I00
sg30
I01
sg31
I00
sg32
I00
sbsbsg731
g0
(g208
g2
Ntp993
Rp994
(dp995
g24
I00
sg30
I01
sg31
I00
sg18
(lp996
g827
ag828
ag829
ag830
ag831
ag832
ag833
ag834
ag835
ag836
ag837
ag838
ag839
ag840
asg25
Nsg827
g0
(g552
g2
Ntp997
Rp998
(dp999
g24
I00
sg30
I01
sg31
I00
sg32
F12.06
sbsg828
g0
(g552
g2
Ntp1000
Rp1001
(dp1002
g24
I00
sg30
I01
sg31
I00
sg32
F0.6285
sbsg829
g0
(g776
g59
(lp1003
F0.006
aF0.0087
atp1004
Rp1005
(dp1006
g24
I00
sg30
I01
sg31
I00
sbsg830
g0
(g776
g59
(lp1007
F0.0
aF0.0
atp1008
Rp1009
(dp1010
g24
I00
sg30
I01
sg31
I00
sbsg831
g0
(g33
g2
Ntp1011
Rp1012
(dp1013
g24
I00
sg30
I01
sg31
I00
sg32
I24
sbsg832
g0
(g33
g2
Ntp1014
Rp1015
(dp1016
g24
I00
sg30
I01
sg31
I00
sg32
I0
sbsg833
g0
(g776
g59
(lp1017
F-0.44
aF1.4
aF7.1
aF38.5
atp1018
Rp1019
(dp1020
g24
I00
sg30
I01
sg31
I00
sbsg834
g0
(g776
g59
(lp1021
F0.907
aF0.915
aF0.92
aF0.921
atp1022
Rp1023
(dp1024
g24
I00
sg30
I01
sg31
I00
sbsg835
g0
(g33
g2
Ntp1025
Rp1026
(dp1027
g24
I00
sg30
I01
sg31
I00
sg32
I201
sbsg836
g0
(g33
g2
Ntp1028
Rp1029
(dp1030
g24
I00
sg30
I01
sg31
I00
sg32
I201
sbsg837
g0
(g552
g2
Ntp1031
Rp1032
(dp1033
g24
I00
sg30
I01
sg31
I00
sg32
F4.0
sbsg838
g0
(g776
g59
(lp1034
F0.0
atp1035
Rp1036
(dp1037
g24
I00
sg30
I01
sg31
I00
sbsg839
g0
(g776
g59
(lp1038
F0.0
atp1039
Rp1040
(dp1041
g24
I00
sg30
I01
sg31
I00
sbsg840
g0
(g262
g2
Ntp1042
Rp1043
(dp1044
g24
I00
sg30
I01
sg31
I00
sg32
I00
sbsbsg732
g0
(g208
g2
Ntp1045
Rp1046
(dp1047
g24
I00
sg30
I01
sg31
I00
sg18
(lp1048
g827
ag828
ag829
ag830
ag831
ag832
ag833
ag834
ag835
ag836
ag837
ag838
ag839
ag840
aVradiationDamage
p1049
asg25
Nsg827
g0
(g552
g2
Ntp1050
Rp1051
(dp1052
g24
I00
sg30
I01
sg31
I00
sg32
F17.3
sbsg828
g0
(g552
g2
Ntp1053
Rp1054
(dp1055
g24
I00
sg30
I01
sg31
I00
sg32
F1.5
sbsg829
g0
(g776
g59
(lp1056
F0.0006252
atp1057
Rp1058
(dp1059
g24
I00
sg30
I01
sg31
I00
sbsg830
g0
(g776
g59
(lp1060
I0
atp1061
Rp1062
(dp1063
g24
I00
sg30
I01
sg31
I00
sbsg831
g0
(g33
g2
Ntp1064
Rp1065
(dp1066
g24
I00
sg30
I01
sg31
I00
sg32
I16
sbsg832
g0
(g33
g2
Ntp1067
Rp1068
(dp1069
g24
I00
sg30
I01
sg31
I00
sg32
I2
sbsg833
g0
(g776
g59
(lp1070
F0.0
aF0.0
aF0.0
aF0.0
atp1071
Rp1072
(dp1073
g24
I00
sg30
I01
sg31
I00
sbsg834
g0
(g776
g59
(lp1074
F0.05376
aF0.05376
aF0.05376
aF0.05376
atp1075
Rp1076
(dp1077
g24
I00
sg30
I01
sg31
I00
sbsg835
g0
(g33
g2
Ntp1078
Rp1079
(dp1080
g24
I00
sg30
I01
sg31
I00
sg32
I206
sbsg836
g0
(g33
g2
Ntp1081
Rp1082
(dp1083
g24
I00
sg30
I01
sg31
I00
sg32
I208
sbsg837
g0
(g552
g2
Ntp1084
Rp1085
(dp1086
g24
I00
sg30
I01
sg31
I00
sg32
F40.0
sbsg838
g0
(g776
g59
(lp1087
F0.01
aF0.015
atp1088
Rp1089
(dp1090
g24
I00
sg30
I01
sg31
I00
sbsg839
g0
(g776
g59
(lp1091
F0.26
aF0.254
atp1092
Rp1093
(dp1094
g24
I00
sg30
I01
sg31
I00
sbsg840
g0
(g262
g2
Ntp1095
Rp1096
(dp1097
g24
I00
sg30
I01
sg31
I00
sg32
I01
sbsg1049
g0
(g208
g2
Ntp1098
Rp1099
(dp1100
g24
I00
sg30
I01
sg31
I00
sg18
(lp1101
VtemperatureBase
p1102
aVtemperatureNew
p1103
aVintlumiOffset
p1104
aVdepVsTemp
p1105
aVintlumiToNeutrons
p1106
aVdepVsNeutrons
p1107
asg25
Nsg1102
g0
(g552
g2
Ntp1108
Rp1109
(dp1110
g24
I00
sg30
I01
sg31
I00
sg32
I20
sbsg1103
g0
(g552
g2
Ntp1111
Rp1112
(dp1113
g24
I00
sg30
I01
sg31
I00
sg32
I-5
sbsg1104
g0
(g552
g2
Ntp1114
Rp1115
(dp1116
g24
I00
sg30
I01
sg31
I00
sg32
I150
sbsg1105
g0
(g552
g2
Ntp1117
Rp1118
(dp1119
g24
I00
sg30
I01
sg31
I00
sg32
F0.0631
sbsg1106
g0
(g552
g2
Ntp1120
Rp1121
(dp1122
g24
I00
sg30
I01
sg31
I00
sg32
F367000000.0
sbsg1107
g0
(g776
g59
(lp1123
F5.543e-10
aF8.012e-10
atp1124
Rp1125
(dp1126
g24
I00
sg30
I01
sg31
I00
sbsbsbsg733
g0
(g208
g2
Ntp1127
Rp1128
(dp1129
g24
I00
sg30
I01
sg31
I00
sg18
(lp1130
g827
ag828
ag829
ag830
ag831
ag832
ag833
ag834
ag835
ag836
ag837
ag838
ag839
ag840
ag1049
asg25
Nsg827
g0
(g552
g2
Ntp1131
Rp1132
(dp1133
g24
I00
sg30
I01
sg31
I00
sg32
F17.3
sbsg828
g0
(g552
g2
Ntp1134
Rp1135
(dp1136
g24
I00
sg30
I01
sg31
I00
sg32
F1.5
sbsg829
g0
(g776
g59
(lp1137
F0.0006252
atp1138
Rp1139
(dp1140
g24
I00
sg30
I01
sg31
I00
sbsg830
g0
(g776
g59
(lp1141
I0
atp1142
Rp1143
(dp1144
g24
I00
sg30
I01
sg31
I00
sbsg831
g0
(g33
g2
Ntp1145
Rp1146
(dp1147
g24
I00
sg30
I01
sg31
I00
sg32
I16
sbsg832
g0
(g33
g2
Ntp1148
Rp1149
(dp1150
g24
I00
sg30
I01
sg31
I00
sg32
I2
sbsg833
g0
(g776
g59
(lp1151
F0.0
aF0.0
aF0.0
aF0.0
atp1152
Rp1153
(dp1154
g24
I00
sg30
I01
sg31
I00
sbsg834
g0
(g776
g59
(lp1155
F0.05376
aF0.05376
aF0.05376
aF0.05376
atp1156
Rp1157
(dp1158
g24
I00
sg30
I01
sg31
I00
sbsg835
g0
(g33
g2
Ntp1159
Rp1160
(dp1161
g24
I00
sg30
I01
sg31
I00
sg32
I206
sbsg836
g0
(g33
g2
Ntp1162
Rp1163
(dp1164
g24
I00
sg30
I01
sg31
I00
sg32
I208
sbsg837
g0
(g552
g2
Ntp1165
Rp1166
(dp1167
g24
I00
sg30
I01
sg31
I00
sg32
F40.0
sbsg838
g0
(g776
g59
(lp1168
F0.01
aF0.015
atp1169
Rp1170
(dp1171
g24
I00
sg30
I01
sg31
I00
sbsg839
g0
(g776
g59
(lp1172
F0.26
aF0.254
atp1173
Rp1174
(dp1175
g24
I00
sg30
I01
sg31
I00
sbsg840
g0
(g262
g2
Ntp1176
Rp1177
(dp1178
g24
I00
sg30
I01
sg31
I00
sg32
I01
sbsg1049
g0
(g208
g2
Ntp1179
Rp1180
(dp1181
g24
I00
sg30
I01
sg31
I00
sg18
(lp1182
g1102
ag1103
ag1104
ag1105
ag1106
ag1107
asg25
Nsg1102
g0
(g552
g2
Ntp1183
Rp1184
(dp1185
g24
I00
sg30
I01
sg31
I00
sg32
I20
sbsg1103
g0
(g552
g2
Ntp1186
Rp1187
(dp1188
g24
I00
sg30
I01
sg31
I00
sg32
I5
sbsg1104
g0
(g552
g2
Ntp1189
Rp1190
(dp1191
g24
I00
sg30
I01
sg31
I00
sg32
I75
sbsg1105
g0
(g552
g2
Ntp1192
Rp1193
(dp1194
g24
I00
sg30
I01
sg31
I00
sg32
F0.0631
sbsg1106
g0
(g552
g2
Ntp1195
Rp1196
(dp1197
g24
I00
sg30
I01
sg31
I00
sg32
F29200000.0
sbsg1107
g0
(g776
g59
(lp1198
F5.543e-10
aF8.012e-10
atp1199
Rp1200
(dp1201
g24
I00
sg30
I01
sg31
I00
sbsbsbsg734
g0
(g208
g2
Ntp1202
Rp1203
(dp1204
g24
I00
sg30
I01
sg31
I00
sg18
(lp1205
g827
ag828
ag829
ag830
ag831
ag832
ag833
ag834
ag835
ag836
ag837
ag838
ag839
ag840
asg25
Nsg827
g0
(g552
g2
Ntp1206
Rp1207
(dp1208
g24
I00
sg30
I01
sg31
I00
sg32
F13.33
sbsg828
g0
(g552
g2
Ntp1209
Rp1210
(dp1211
g24
I00
sg30
I01
sg31
I00
sg32
F3.33
sbsg829
g0
(g776
g59
(lp1212
F0.14
aF0.135
atp1213
Rp1214
(dp1215
g24
I00
sg30
I01
sg31
I00
sbsg830
g0
(g776
g59
(lp1216
F0.0
aF0.0
atp1217
Rp1218
(dp1219
g24
I00
sg30
I01
sg31
I00
sbsg831
g0
(g33
g2
Ntp1220
Rp1221
(dp1222
g24
I00
sg30
I01
sg31
I00
sg32
I-9999
sbsg832
g0
(g33
g2
Ntp1223
Rp1224
(dp1225
g24
I00
sg30
I01
sg31
I00
sg32
I1
sbsg833
g0
(g776
g59
(lp1226
F0.0697
aF-0.7405
aF12.38
aF-671.9
atp1227
Rp1228
(dp1229
g24
I00
sg30
I01
sg31
I00
sbsg834
g0
(g776
g59
(lp1230
F0.297
aF0.298
aF0.298
aF0.313
atp1231
Rp1232
(dp1233
g24
I00
sg30
I01
sg31
I00
sbsg835
g0
(g33
g2
Ntp1234
Rp1235
(dp1236
g24
I00
sg30
I01
sg31
I00
sg32
I301
sbsg836
g0
(g33
g2
Ntp1237
Rp1238
(dp1239
g24
I00
sg30
I01
sg31
I00
sg32
I301
sbsg837
g0
(g552
g2
Ntp1240
Rp1241
(dp1242
g24
I00
sg30
I01
sg31
I00
sg32
F0.0
sbsg838
g0
(g776
g59
(lp1243
F0.0
atp1244
Rp1245
(dp1246
g24
I00
sg30
I01
sg31
I00
sbsg839
g0
(g776
g59
(lp1247
F0.0
atp1248
Rp1249
(dp1250
g24
I00
sg30
I01
sg31
I00
sbsg840
g0
(g262
g2
Ntp1251
Rp1252
(dp1253
g24
I00
sg30
I01
sg31
I00
sg32
I00
sbsbsg735
g0
(g505
g59
(lp1254
g0
(g208
g2
Ntp1255
Rp1256
(dp1257
g24
I00
sg30
I01
sg31
I00
sg18
(lp1258
Vpixels
p1259
aVcrosstalk
p1260
aVnonlin1
p1261
aVnonlin2
p1262
aVnonlin3
p1263
asg25
Nsg1259
g0
(g33
g2
Ntp1264
Rp1265
(dp1266
g24
I00
sg30
I01
sg31
I00
sg32
I36000
sbsg1260
g0
(g552
g2
Ntp1267
Rp1268
(dp1269
g24
I00
sg30
I01
sg31
I00
sg32
F0.0
sbsg1261
g0
(g552
g2
Ntp1270
Rp1271
(dp1272
g24
I00
sg30
I01
sg31
I00
sg32
F1.0
sbsg1262
g0
(g552
g2
Ntp1273
Rp1274
(dp1275
g24
I00
sg30
I01
sg31
I00
sg32
F0.0
sbsg1263
g0
(g552
g2
Ntp1276
Rp1277
(dp1278
g24
I00
sg30
I01
sg31
I00
sg32
F0.0
sbsbag0
(g208
g2
Ntp1279
Rp1280
(dp1281
g24
I00
sg30
I01
sg31
I00
sg18
(lp1282
g1259
ag1260
ag1261
ag1262
ag1263
asg25
Nsg1259
g0
(g33
g2
Ntp1283
Rp1284
(dp1285
g24
I00
sg30
I01
sg31
I00
sg32
I2500
sbsg1260
g0
(g552
g2
Ntp1286
Rp1287
(dp1288
g24
I00
sg30
I01
sg31
I00
sg32
F0.0
sbsg1261
g0
(g552
g2
Ntp1289
Rp1290
(dp1291
g24
I00
sg30
I01
sg31
I00
sg32
F1.0
sbsg1262
g0
(g552
g2
Ntp1292
Rp1293
(dp1294
g24
I00
sg30
I01
sg31
I00
sg32
F0.0
sbsg1263
g0
(g552
g2
Ntp1295
Rp1296
(dp1297
g24
I00
sg30
I01
sg31
I00
sg32
F0.0
sbsbag0
(g208
g2
Ntp1298
Rp1299
(dp1300
g24
I00
sg30
I01
sg31
I00
sg18
(lp1301
g1259
ag1260
ag1261
ag1262
ag1263
asg25
Nsg1259
g0
(g33
g2
Ntp1302
Rp1303
(dp1304
g24
I00
sg30
I01
sg31
I00
sg32
I27370
sbsg1260
g0
(g552
g2
Ntp1305
Rp1306
(dp1307
g24
I00
sg30
I01
sg31
I00
sg32
F0.17
sbsg1261
g0
(g552
g2
Ntp1308
Rp1309
(dp1310
g24
I00
sg30
I01
sg31
I00
sg32
F1.00985
sbsg1262
g0
(g552
g2
Ntp1311
Rp1312
(dp1313
g24
I00
sg30
I01
sg31
I00
sg32
F7.84089e-06
sbsg1263
g0
(g552
g2
Ntp1314
Rp1315
(dp1316
g24
I00
sg30
I01
sg31
I00
sg32
F2.86282e-10
sbsbag0
(g208
g2
Ntp1317
Rp1318
(dp1319
g24
I00
sg30
I01
sg31
I00
sg18
(lp1320
g1259
ag1260
ag1261
ag1262
ag1263
asg25
Nsg1259
g0
(g33
g2
Ntp1321
Rp1322
(dp1323
g24
I00
sg30
I01
sg31
I00
sg32
I38018
sbsg1260
g0
(g552
g2
Ntp1324
Rp1325
(dp1326
g24
I00
sg30
I01
sg31
I00
sg32
F0.196
sbsg1261
g0
(g552
g2
Ntp1327
Rp1328
(dp1329
g24
I00
sg30
I01
sg31
I00
sg32
F1.00546
sbsg1262
g0
(g552
g2
Ntp1330
Rp1331
(dp1332
g24
I00
sg30
I01
sg31
I00
sg32
F6.40239e-06
sbsg1263
g0
(g552
g2
Ntp1333
Rp1334
(dp1335
g24
I00
sg30
I01
sg31
I00
sg32
F1.27011e-10
sbsbag0
(g208
g2
Ntp1336
Rp1337
(dp1338
g24
I00
sg30
I01
sg31
I00
sg18
(lp1339
g1259
ag1260
ag1261
ag1262
ag1263
asg25
Nsg1259
g0
(g33
g2
Ntp1340
Rp1341
(dp1342
g24
I00
sg30
I01
sg31
I00
sg32
I27370
sbsg1260
g0
(g552
g2
Ntp1343
Rp1344
(dp1345
g24
I00
sg30
I01
sg31
I00
sg32
F0.17
sbsg1261
g0
(g552
g2
Ntp1346
Rp1347
(dp1348
g24
I00
sg30
I01
sg31
I00
sg32
F1.00985
sbsg1262
g0
(g552
g2
Ntp1349
Rp1350
(dp1351
g24
I00
sg30
I01
sg31
I00
sg32
F7.84089e-06
sbsg1263
g0
(g552
g2
Ntp1352
Rp1353
(dp1354
g24
I00
sg30
I01
sg31
I00
sg32
F2.86282e-10
sbsbag0
(g208
g2
Ntp1355
Rp1356
(dp1357
g24
I00
sg30
I01
sg31
I00
sg18
(lp1358
g1259
ag1260
ag1261
ag1262
ag1263
asg25
Nsg1259
g0
(g33
g2
Ntp1359
Rp1360
(dp1361
g24
I00
sg30
I01
sg31
I00
sg32
I38018
sbsg1260
g0
(g552
g2
Ntp1362
Rp1363
(dp1364
g24
I00
sg30
I01
sg31
I00
sg32
F0.196
sbsg1261
g0
(g552
g2
Ntp1365
Rp1366
(dp1367
g24
I00
sg30
I01
sg31
I00
sg32
F1.00546
sbsg1262
g0
(g552
g2
Ntp1368
Rp1369
(dp1370
g24
I00
sg30
I01
sg31
I00
sg32
F6.40239e-06
sbsg1263
g0
(g552
g2
Ntp1371
Rp1372
(dp1373
g24
I00
sg30
I01
sg31
I00
sg32
F1.27011e-10
sbsbag0
(g208
g2
Ntp1374
Rp1375
(dp1376
g24
I00
sg30
I01
sg31
I00
sg18
(lp1377
g1259
ag1260
ag1261
ag1262
ag1263
asg25
Nsg1259
g0
(g33
g2
Ntp1378
Rp1379
(dp1380
g24
I00
sg30
I01
sg31
I00
sg32
I0
sbsg1260
g0
(g552
g2
Ntp1381
Rp1382
(dp1383
g24
I00
sg30
I01
sg31
I00
sg32
F0.0
sbsg1261
g0
(g552
g2
Ntp1384
Rp1385
(dp1386
g24
I00
sg30
I01
sg31
I00
sg32
F1.0
sbsg1262
g0
(g552
g2
Ntp1387
Rp1388
(dp1389
g24
I00
sg30
I01
sg31
I00
sg32
F0.0
sbsg1263
g0
(g552
g2
Ntp1390
Rp1391
(dp1392
g24
I00
sg30
I01
sg31
I00
sg32
F0.0
sbsbatp1393
Rp1394
(dp1395
g24
I00
sg30
I01
sg31
I00
sg65
I1
sbsg44
V/cvmfs/cms.cern.ch/slc7_amd64_gcc10/cms/cmssw/CMSSW_12_4_3/python/CalibCalorimetry/HcalPlugins/Hcal_Conditions_forGlobalTag_cff.py
p1396
sg46
I16
sg47
g703
sbsVeegeom
p1397
g0
(g452
g2
Ntp1398
Rp1399
(dp1400
g17
VEmptyESSource
p1401
sg18
(lp1402
VrecordName
p1403
aViovIsRunNotTime
p1404
aVfirstValid
p1405
asg24
I00
sg25
Nsg1403
g0
(g26
g2
Ntp1406
Rp1407
(dp1408
g24
I00
sg30
I01
sg31
I00
sg32
VEcalMappingRcd
p1409
sbsg31
I00
sg1404
g0
(g262
g2
Ntp1410
Rp1411
(dp1412
g24
I00
sg30
I01
sg31
I00
sg32
I01
sbsg1405
g0
(cFWCore.ParameterSet.Types
vuint32
p1413
g59
(lp1414
I1
atp1415
Rp1416
(dp1417
g24
I00
sg30
I01
sg31
I00
sbsg44
V/cvmfs/cms.cern.ch/slc7_amd64_gcc10/cms/cmssw/CMSSW_12_4_3/python/Geometry/EcalMapping/EcalMappingRecord_cfi.py
p1418
sg46
I3
sg47
g1397
sbssV_Process__esproducers
p1419
(dp1420
VTransientTrackBuilderESProducer
p1421
g0
(cFWCore.ParameterSet.Modules
ESProducer
p1422
g2
Ntp1423
Rp1424
(dp1425
g17
g1421
sg18
(lp1426
VComponentName
p1427
asg24
I00
sg25
Nsg1427
g0
(g26
g2
Ntp1428
Rp1429
(dp1430
g24
I00
sg30
I01
sg31
I00
sg32
VTransientTrackBuilder
p1431
sbsg31
I00
sg44
g66
sg46
I55
sg47
g1421
sbsVParabolicParametrizedMagneticFieldProducer
p1432
g0
(g1422
g2
Ntp1433
Rp1434
(dp1435
g17
VAutoParametrizedMagneticFieldProducer
p1436
sg18
(lp1437
Vversion
p1438
aVlabel
p1439
aVvalueOverride
p1440
asg24
I00
sg25
Nsg1438
g0
(g26
g2
Ntp1441
Rp1442
(dp1443
g24
I00
sg30
I01
sg31
I00
sg32
VParabolic
p1444
sbsg31
I01
sg1439
g0
(g26
g2
Ntp1445
Rp1446
(dp1447
g24
I00
sg30
I00
sg31
I01
sg32
VParabolicMf
p1448
sbsg1440
g0
(g33
g2
Ntp1449
Rp1450
(dp1451
g24
I00
sg30
I01
sg31
I00
sg32
I-1
sbsg44
g66
sg46
I55
sg47
g1432
sbsVVolumeBasedMagneticFieldESProducer
p1452
g0
(g1422
g2
Ntp1453
Rp1454
(dp1455
g17
VVolumeBasedMagneticFieldESProducerFromDB
p1456
sg18
(lp1457
g1439
aVdebugBuilder
p1458
ag1440
asg24
I00
sg25
Nsg1439
g0
(g26
g2
Ntp1459
Rp1460
(dp1461
g24
I00
sg30
I00
sg31
I00
sg32
g43
sbsg31
I00
sg1458
g0
(g262
g2
Ntp1462
Rp1463
(dp1464
g24
I00
sg30
I00
sg31
I00
sg32
I00
sbsg1440
g0
(g33
g2
Ntp1465
Rp1466
(dp1467
g24
I00
sg30
I01
sg31
I00
sg32
I-1
sbsg44
g66
sg46
I55
sg47
g1452
sbsVCastorDbProducer
p1468
g0
(g1422
g2
Ntp1469
Rp1470
(dp1471
g17
g1468
sg18
(lp1472
g537
asg24
I00
sg25
Nsg537
g0
(g26
g2
Ntp1473
Rp1474
(dp1475
g24
I00
sg30
I01
sg31
I00
sg32
g43
sbsg31
I00
sg44
g66
sg46
I55
sg47
g1468
sbsVEcalLaserCorrectionService
p1476
g0
(g1422
g2
Ntp1477
Rp1478
(dp1479
g17
g1476
sg18
(lp1480
VmaxExtrapolationTimeInSec
p1481
asg24
I00
sg25
Nsg1481
g0
(cFWCore.ParameterSet.Types
uint32
p1482
g2
Ntp1483
Rp1484
(dp1485
g24
I00
sg30
I01
sg31
I00
sg32
I0
sbsg31
I00
sg44
g66
sg46
I55
sg47
g1476
sbsVEcalLaserCorrectionServiceMC
p1486
g0
(g1422
g2
Ntp1487
Rp1488
(dp1489
g17
g1486
sg18
(lp1490
g537
asg24
I00
sg25
Nsg537
g0
(g26
g2
Ntp1491
Rp1492
(dp1493
g24
I00
sg30
I01
sg31
I00
sg32
g43
sbsg31
I00
sg44
g66
sg46
I55
sg47
g1486
sbsVSiStripRecHitMatcherESProducer
p1494
g0
(g1422
g2
Ntp1495
Rp1496
(dp1497
g17
g1494
sg18
(lp1498
g1427
aVNSigmaInside
p1499
aVPreFilter
p1500
asg24
I00
sg25
Nsg1427
g0
(g26
g2
Ntp1501
Rp1502
(dp1503
g24
I00
sg30
I01
sg31
I00
sg32
VStandardMatcher
p1504
sbsg31
I00
sg1499
g0
(g552
g2
Ntp1505
Rp1506
(dp1507
g24
I00
sg30
I01
sg31
I00
sg32
F3.0
sbsg1500
g0
(g262
g2
Ntp1508
Rp1509
(dp1510
g24
I00
sg30
I01
sg31
I00
sg32
I00
sbsg44
g66
sg46
I55
sg47
g1494
sbsVStripCPEfromTrackAngleESProducer
p1511
g0
(g1422
g2
Ntp1512
Rp1513
(dp1514
g17
VStripCPEESProducer
p1515
sg18
(lp1516
g1427
aVComponentType
p1517
aVparameters
p1518
asg24
I00
sg25
Nsg1427
g0
(g26
g2
Ntp1519
Rp1520
(dp1521
g24
I00
sg30
I01
sg31
I01
sg32
VStripCPEfromTrackAngle
p1522
sbsg31
I00
sg1517
g0
(g26
g2
Ntp1523
Rp1524
(dp1525
g24
I00
sg30
I01
sg31
I01
sg32
g1522
sbsg1518
g0
(g208
g2
Ntp1526
Rp1527
(dp1528
g24
I00
sg30
I01
sg31
I00
sg18
(lp1529
VmLC_P0
p1530
aVmLC_P1
p1531
aVmLC_P2
p1532
aVmTIB_P0
p1533
aVmTIB_P1
p1534
aVmTOB_P0
p1535
aVmTOB_P1
p1536
aVmTID_P0
p1537
aVmTID_P1
p1538
aVmTEC_P0
p1539
aVmTEC_P1
p1540
aVuseLegacyError
p1541
aVmaxChgOneMIP
p1542
asg25
Nsg1530
g0
(g552
g2
Ntp1543
Rp1544
(dp1545
g24
I00
sg30
I01
sg31
I00
sg32
F-0.326
sbsg1531
g0
(g552
g2
Ntp1546
Rp1547
(dp1548
g24
I00
sg30
I01
sg31
I00
sg32
F0.618
sbsg1532
g0
(g552
g2
Ntp1549
Rp1550
(dp1551
g24
I00
sg30
I01
sg31
I00
sg32
F0.3
sbsg1533
g0
(g552
g2
Ntp1552
Rp1553
(dp1554
g24
I00
sg30
I01
sg31
I00
sg32
F-0.742
sbsg1534
g0
(g552
g2
Ntp1555
Rp1556
(dp1557
g24
I00
sg30
I01
sg31
I00
sg32
F0.202
sbsg1535
g0
(g552
g2
Ntp1558
Rp1559
(dp1560
g24
I00
sg30
I01
sg31
I00
sg32
F-1.026
sbsg1536
g0
(g552
g2
Ntp1561
Rp1562
(dp1563
g24
I00
sg30
I01
sg31
I00
sg32
F0.253
sbsg1537
g0
(g552
g2
Ntp1564
Rp1565
(dp1566
g24
I00
sg30
I01
sg31
I00
sg32
F-1.427
sbsg1538
g0
(g552
g2
Ntp1567
Rp1568
(dp1569
g24
I00
sg30
I01
sg31
I00
sg32
F0.433
sbsg1539
g0
(g552
g2
Ntp1570
Rp1571
(dp1572
g24
I00
sg30
I01
sg31
I00
sg32
F-1.885
sbsg1540
g0
(g552
g2
Ntp1573
Rp1574
(dp1575
g24
I00
sg30
I01
sg31
I00
sg32
F0.471
sbsg1541
g0
(g262
g2
Ntp1576
Rp1577
(dp1578
g24
I00
sg30
I01
sg31
I00
sg32
I00
sbsg1542
g0
(g552
g2
Ntp1579
Rp1580
(dp1581
g24
I00
sg30
I01
sg31
I00
sg32
F6000.0
sbsbsg44
V/cvmfs/cms.cern.ch/slc7_amd64_gcc10/cms/cmssw/CMSSW_12_4_3/python/RecoLocalTracker/SiStripRecHitConverter/StripCPEfromTrackAngle_cfi.py
p1582
sg46
I4
sg47
g1511
sbsVctppsBeamParametersFromLHCInfoESSource
p1583
g0
(g1422
g2
Ntp1584
Rp1585
(dp1586
g17
VCTPPSBeamParametersFromLHCInfoESSource
p1587
sg18
(lp1588
VlhcInfoLabel
p1589
aVbeamDivX45
p1590
aVbeamDivY45
p1591
aVbeamDivX56
p1592
aVbeamDivY56
p1593
aVvtxOffsetX45
p1594
aVvtxOffsetY45
p1595
aVvtxOffsetZ45
p1596
aVvtxOffsetX56
p1597
aVvtxOffsetY56
p1598
aVvtxOffsetZ56
p1599
aVvtxStddevX
p1600
aVvtxStddevY
p1601
aVvtxStddevZ
p1602
ag537
asg24
I00
sg25
Nsg1589
g0
(g26
g2
Ntp1603
Rp1604
(dp1605
g24
I00
sg30
I01
sg31
I00
sg32
g43
sbsg31
I00
sg1590
g0
(g552
g2
Ntp1606
Rp1607
(dp1608
g24
I00
sg30
I01
sg31
I00
sg32
F0.1
sbsg1591
g0
(g552
g2
Ntp1609
Rp1610
(dp1611
g24
I00
sg30
I01
sg31
I00
sg32
F0.1
sbsg1592
g0
(g552
g2
Ntp1612
Rp1613
(dp1614
g24
I00
sg30
I01
sg31
I00
sg32
F0.1
sbsg1593
g0
(g552
g2
Ntp1615
Rp1616
(dp1617
g24
I00
sg30
I01
sg31
I00
sg32
F0.1
sbsg1594
g0
(g552
g2
Ntp1618
Rp1619
(dp1620
g24
I00
sg30
I01
sg31
I00
sg32
F0.01
sbsg1595
g0
(g552
g2
Ntp1621
Rp1622
(dp1623
g24
I00
sg30
I01
sg31
I00
sg32
F0.01
sbsg1596
g0
(g552
g2
Ntp1624
Rp1625
(dp1626
g24
I00
sg30
I01
sg31
I00
sg32
F0.01
sbsg1597
g0
(g552
g2
Ntp1627
Rp1628
(dp1629
g24
I00
sg30
I01
sg31
I00
sg32
F0.01
sbsg1598
g0
(g552
g2
Ntp1630
Rp1631
(dp1632
g24
I00
sg30
I01
sg31
I00
sg32
F0.01
sbsg1599
g0
(g552
g2
Ntp1633
Rp1634
(dp1635
g24
I00
sg30
I01
sg31
I00
sg32
F0.01
sbsg1600
g0
(g552
g2
Ntp1636
Rp1637
(dp1638
g24
I00
sg30
I01
sg31
I00
sg32
F0.02
sbsg1601
g0
(g552
g2
Ntp1639
Rp1640
(dp1641
g24
I00
sg30
I01
sg31
I00
sg32
F0.02
sbsg1602
g0
(g552
g2
Ntp1642
Rp1643
(dp1644
g24
I00
sg30
I01
sg31
I00
sg32
F0.02
sbsg537
g0
(g26
g2
Ntp1645
Rp1646
(dp1647
g24
I00
sg30
I01
sg31
I00
sg32
g43
sbsg44
g66
sg46
I55
sg47
g1583
sbsVctppsInterpolatedOpticalFunctionsESSource
p1648
g0
(g1422
g2
Ntp1649
Rp1650
(dp1651
g17
VCTPPSInterpolatedOpticalFunctionsESSource
p1652
sg18
(lp1653
g1589
aVopticsLabel
p1654
ag537
asg24
I00
sg25
Nsg1589
g0
(g26
g2
Ntp1655
Rp1656
(dp1657
g24
I00
sg30
I01
sg31
I00
sg32
g43
sbsg31
I01
sg1654
g0
(g26
g2
Ntp1658
Rp1659
(dp1660
g24
I00
sg30
I01
sg31
I00
sg32
g43
sbsg537
g0
(g26
g2
Ntp1661
Rp1662
(dp1663
g24
I00
sg30
I01
sg31
I00
sg32
g43
sbsg44
g66
sg46
I55
sg47
g1648
sbsVhcal_db_producer
p1664
g0
(g1422
g2
Ntp1665
Rp1666
(dp1667
g17
VHcalDbProducer
p1668
sg18
(lp1669
Vdump
p1670
aVfile
p1671
asg24
I00
sg25
Nsg1670
g0
(g58
g59
(lp1672
g43
atp1673
Rp1674
(dp1675
g24
I00
sg30
I00
sg31
I00
sg65
I1
sbsg31
I00
sg1671
g0
(g26
g2
Ntp1676
Rp1677
(dp1678
g24
I00
sg30
I00
sg31
I00
sg32
g43
sbsg44
g66
sg46
I55
sg47
g1664
sbsVmultipleScatteringParametrisationMakerESProducer
p1679
g0
(g1422
g2
Ntp1680
Rp1681
(dp1682
g17
VMultipleScatteringParametrisationMakerESProducer
p1683
sg18
(lp1684
g537
asg24
I00
sg25
Nsg537
g0
(g26
g2
Ntp1685
Rp1686
(dp1687
g24
I00
sg30
I01
sg31
I00
sg32
g43
sbsg31
I00
sg44
g66
sg46
I55
sg47
g1679
sbsVsiPixelQualityESProducer
p1688
g0
(g1422
g2
Ntp1689
Rp1690
(dp1691
g17
VSiPixelQualityESProducer
p1692
sg18
(lp1693
VsiPixelQualityLabel
p1694
aVListOfRecordToMerge
p1695
asg24
I00
sg25
Nsg1694
g0
(g26
g2
Ntp1696
Rp1697
(dp1698
g24
I00
sg30
I01
sg31
I00
sg32
g43
sbsg31
I01
sg44
g66
sg46
I55
sg1695
g0
(g505
g59
(lp1699
g0
(g208
g2
Ntp1700
Rp1701
(dp1702
g24
I00
sg30
I01
sg31
I00
sg18
(lp1703
Vrecord
p1704
aVtag
p1705
asg25
Nsg1704
g0
(g26
g2
Ntp1706
Rp1707
(dp1708
g24
I00
sg30
I01
sg31
I00
sg32
VSiPixelQualityFromDbRcd
p1709
sbsg1705
g0
(g26
g2
Ntp1710
Rp1711
(dp1712
g24
I00
sg30
I01
sg31
I00
sg32
g43
sbsbag0
(g208
g2
Ntp1713
Rp1714
(dp1715
g24
I00
sg30
I01
sg31
I00
sg18
(lp1716
g1704
ag1705
asg25
Nsg1704
g0
(g26
g2
Ntp1717
Rp1718
(dp1719
g24
I00
sg30
I01
sg31
I00
sg32
VSiPixelDetVOffRcd
p1720
sbsg1705
g0
(g26
g2
Ntp1721
Rp1722
(dp1723
g24
I00
sg30
I01
sg31
I00
sg32
g43
sbsbatp1724
Rp1725
(dp1726
g24
I00
sg30
I01
sg31
I00
sg65
I1
sbsg47
g1688
sbsVsiStripBackPlaneCorrectionDepESProducer
p1727
g0
(g1422
g2
Ntp1728
Rp1729
(dp1730
g17
VSiStripBackPlaneCorrectionDepESProducer
p1731
sg18
(lp1732
VLatencyRecord
p1733
aVBackPlaneCorrectionPeakMode
p1734
aVBackPlaneCorrectionDeconvMode
p1735
asg24
I00
sg25
Nsg1733
g0
(g208
g2
Ntp1736
Rp1737
(dp1738
g24
I00
sg30
I01
sg31
I00
sg18
(lp1739
g1704
ag1439
asg25
Nsg1704
g0
(g26
g2
Ntp1740
Rp1741
(dp1742
g24
I00
sg30
I01
sg31
I00
sg32
VSiStripLatencyRcd
p1743
sbsg1439
g0
(g26
g2
Ntp1744
Rp1745
(dp1746
g24
I00
sg30
I00
sg31
I00
sg32
g43
sbsbsg31
I00
sg1734
g0
(g208
g2
Ntp1747
Rp1748
(dp1749
g24
I00
sg30
I01
sg31
I00
sg18
(lp1750
g1704
ag1439
asg25
Nsg1704
g0
(g26
g2
Ntp1751
Rp1752
(dp1753
g24
I00
sg30
I01
sg31
I00
sg32
VSiStripBackPlaneCorrectionRcd
p1754
sbsg1439
g0
(g26
g2
Ntp1755
Rp1756
(dp1757
g24
I00
sg30
I00
sg31
I00
sg32
Vpeak
p1758
sbsbsg1735
g0
(g208
g2
Ntp1759
Rp1760
(dp1761
g24
I00
sg30
I01
sg31
I00
sg18
(lp1762
g1704
ag1439
asg25
Nsg1704
g0
(g26
g2
Ntp1763
Rp1764
(dp1765
g24
I00
sg30
I01
sg31
I00
sg32
g1754
sbsg1439
g0
(g26
g2
Ntp1766
Rp1767
(dp1768
g24
I00
sg30
I00
sg31
I00
sg32
Vdeconvolution
p1769
sbsbsg44
g66
sg46
I55
sg47
g1727
sbsVsiStripGainESProducer
p1770
g0
(g1422
g2
Ntp1771
Rp1772
(dp1773
g17
VSiStripGainESProducer
p1774
sg18
(lp1775
g537
aVprintDebug
p1776
aVAutomaticNormalization
p1777
aVAPVGain
p1778
asg24
I00
sg25
Nsg537
g0
(g26
g2
Ntp1779
Rp1780
(dp1781
g24
I00
sg30
I01
sg31
I00
sg32
g43
sbsg31
I00
sg1776
g0
(g262
g2
Ntp1782
Rp1783
(dp1784
g24
I00
sg30
I00
sg31
I00
sg32
I00
sbsg1777
g0
(g262
g2
Ntp1785
Rp1786
(dp1787
g24
I00
sg30
I01
sg31
I00
sg32
I00
sbsg1778
g0
(g505
g59
(lp1788
g0
(g208
g2
Ntp1789
Rp1790
(dp1791
g24
I00
sg30
I01
sg31
I00
sg18
(lp1792
VRecord
p1793
aVLabel
p1794
aVNormalizationFactor
p1795
asg25
Nsg1793
g0
(g26
g2
Ntp1796
Rp1797
(dp1798
g24
I00
sg30
I01
sg31
I00
sg32
VSiStripApvGainRcd
p1799
sbsg1794
g0
(g26
g2
Ntp1800
Rp1801
(dp1802
g24
I00
sg30
I00
sg31
I00
sg32
g43
sbsg1795
g0
(g552
g2
Ntp1803
Rp1804
(dp1805
g24
I00
sg30
I00
sg31
I00
sg32
F1.0
sbsbag0
(g208
g2
Ntp1806
Rp1807
(dp1808
g24
I00
sg30
I01
sg31
I00
sg18
(lp1809
g1793
ag1794
ag1795
asg25
Nsg1793
g0
(g26
g2
Ntp1810
Rp1811
(dp1812
g24
I00
sg30
I01
sg31
I00
sg32
VSiStripApvGain2Rcd
p1813
sbsg1794
g0
(g26
g2
Ntp1814
Rp1815
(dp1816
g24
I00
sg30
I00
sg31
I00
sg32
g43
sbsg1795
g0
(g552
g2
Ntp1817
Rp1818
(dp1819
g24
I00
sg30
I00
sg31
I00
sg32
F1.0
sbsbatp1820
Rp1821
(dp1822
g24
I00
sg30
I01
sg31
I00
sg65
I1
sbsg44
g66
sg46
I55
sg47
g1770
sbsVsiStripLorentzAngleDepESProducer
p1823
g0
(g1422
g2
Ntp1824
Rp1825
(dp1826
g17
VSiStripLorentzAngleDepESProducer
p1827
sg18
(lp1828
g1733
aVLorentzAnglePeakMode
p1829
aVLorentzAngleDeconvMode
p1830
asg24
I00
sg25
Nsg1733
g0
(g208
g2
Ntp1831
Rp1832
(dp1833
g24
I00
sg30
I01
sg31
I00
sg18
(lp1834
g1704
ag1439
asg25
Nsg1704
g0
(g26
g2
Ntp1835
Rp1836
(dp1837
g24
I00
sg30
I01
sg31
I00
sg32
g1743
sbsg1439
g0
(g26
g2
Ntp1838
Rp1839
(dp1840
g24
I00
sg30
I00
sg31
I00
sg32
g43
sbsbsg31
I00
sg1829
g0
(g208
g2
Ntp1841
Rp1842
(dp1843
g24
I00
sg30
I01
sg31
I00
sg18
(lp1844
g1704
ag1439
asg25
Nsg1704
g0
(g26
g2
Ntp1845
Rp1846
(dp1847
g24
I00
sg30
I01
sg31
I00
sg32
VSiStripLorentzAngleRcd
p1848
sbsg1439
g0
(g26
g2
Ntp1849
Rp1850
(dp1851
g24
I00
sg30
I00
sg31
I00
sg32
g1758
sbsbsg1830
g0
(g208
g2
Ntp1852
Rp1853
(dp1854
g24
I00
sg30
I01
sg31
I00
sg18
(lp1855
g1704
ag1439
asg25
Nsg1704
g0
(g26
g2
Ntp1856
Rp1857
(dp1858
g24
I00
sg30
I01
sg31
I00
sg32
g1848
sbsg1439
g0
(g26
g2
Ntp1859
Rp1860
(dp1861
g24
I00
sg30
I00
sg31
I00
sg32
g1769
sbsbsg44
g66
sg46
I55
sg47
g1823
sbsVsiStripQualityESProducer
p1862
g0
(g1422
g2
Ntp1863
Rp1864
(dp1865
g17
VSiStripQualityESProducer
p1866
sg18
(lp1867
g537
ag1695
aVReduceGranularity
p1868
aVThresholdForReducedGranularity
p1869
aVPrintDebugOutput
p1870
aVUseEmptyRunInfo
p1871
asg24
I00
sg25
Nsg537
g0
(g26
g2
Ntp1872
Rp1873
(dp1874
g24
I00
sg30
I01
sg31
I00
sg32
g43
sbsg31
I01
sg1695
g0
(g505
g59
(lp1875
g0
(g208
g2
Ntp1876
Rp1877
(dp1878
g24
I00
sg30
I01
sg31
I00
sg18
(lp1879
g1704
ag1705
asg25
Nsg1704
g0
(g26
g2
Ntp1880
Rp1881
(dp1882
g24
I00
sg30
I01
sg31
I00
sg32
VSiStripDetVOffRcd
p1883
sbsg1705
g0
(g26
g2
Ntp1884
Rp1885
(dp1886
g24
I00
sg30
I01
sg31
I00
sg32
g43
sbsbag0
(g208
g2
Ntp1887
Rp1888
(dp1889
g24
I00
sg30
I01
sg31
I00
sg18
(lp1890
g1704
ag1705
asg25
Nsg1704
g0
(g26
g2
Ntp1891
Rp1892
(dp1893
g24
I00
sg30
I01
sg31
I00
sg32
VSiStripDetCablingRcd
p1894
sbsg1705
g0
(g26
g2
Ntp1895
Rp1896
(dp1897
g24
I00
sg30
I01
sg31
I00
sg32
g43
sbsbag0
(g208
g2
Ntp1898
Rp1899
(dp1900
g24
I00
sg30
I01
sg31
I00
sg18
(lp1901
g1704
ag1705
asg25
Nsg1704
g0
(g26
g2
Ntp1902
Rp1903
(dp1904
g24
I00
sg30
I01
sg31
I00
sg32
VRunInfoRcd
p1905
sbsg1705
g0
(g26
g2
Ntp1906
Rp1907
(dp1908
g24
I00
sg30
I01
sg31
I00
sg32
g43
sbsbag0
(g208
g2
Ntp1909
Rp1910
(dp1911
g24
I00
sg30
I01
sg31
I00
sg18
(lp1912
g1704
ag1705
asg25
Nsg1704
g0
(g26
g2
Ntp1913
Rp1914
(dp1915
g24
I00
sg30
I01
sg31
I00
sg32
VSiStripBadChannelRcd
p1916
sbsg1705
g0
(g26
g2
Ntp1917
Rp1918
(dp1919
g24
I00
sg30
I01
sg31
I00
sg32
g43
sbsbag0
(g208
g2
Ntp1920
Rp1921
(dp1922
g24
I00
sg30
I01
sg31
I00
sg18
(lp1923
g1704
ag1705
asg25
Nsg1704
g0
(g26
g2
Ntp1924
Rp1925
(dp1926
g24
I00
sg30
I01
sg31
I00
sg32
VSiStripBadFiberRcd
p1927
sbsg1705
g0
(g26
g2
Ntp1928
Rp1929
(dp1930
g24
I00
sg30
I01
sg31
I00
sg32
g43
sbsbag0
(g208
g2
Ntp1931
Rp1932
(dp1933
g24
I00
sg30
I01
sg31
I00
sg18
(lp1934
g1704
ag1705
asg25
Nsg1704
g0
(g26
g2
Ntp1935
Rp1936
(dp1937
g24
I00
sg30
I01
sg31
I00
sg32
VSiStripBadModuleRcd
p1938
sbsg1705
g0
(g26
g2
Ntp1939
Rp1940
(dp1941
g24
I00
sg30
I01
sg31
I00
sg32
g43
sbsbag0
(g208
g2
Ntp1942
Rp1943
(dp1944
g24
I00
sg30
I01
sg31
I00
sg18
(lp1945
g1704
ag1705
asg25
Nsg1704
g0
(g26
g2
Ntp1946
Rp1947
(dp1948
g24
I00
sg30
I01
sg31
I00
sg32
VSiStripBadStripRcd
p1949
sbsg1705
g0
(g26
g2
Ntp1950
Rp1951
(dp1952
g24
I00
sg30
I01
sg31
I00
sg32
g43
sbsbatp1953
Rp1954
(dp1955
g24
I00
sg30
I01
sg31
I00
sg65
I1
sbsg1868
g0
(g262
g2
Ntp1956
Rp1957
(dp1958
g24
I00
sg30
I01
sg31
I00
sg32
I00
sbsg1869
g0
(g552
g2
Ntp1959
Rp1960
(dp1961
g24
I00
sg30
I01
sg31
I00
sg32
F0.3
sbsg1870
g0
(g262
g2
Ntp1962
Rp1963
(dp1964
g24
I00
sg30
I01
sg31
I00
sg32
I00
sbsg1871
g0
(g262
g2
Ntp1965
Rp1966
(dp1967
g24
I00
sg30
I01
sg31
I00
sg32
I00
sbsg44
g66
sg46
I55
sg47
g1862
sbsVsistripconn
p1968
g0
(g1422
g2
Ntp1969
Rp1970
(dp1971
g17
VSiStripConnectivity
p1972
sg18
(lp1973
sg24
I00
sg25
Nsg31
I00
sg44
g66
sg46
I55
sg47
g1968
sbsVstripCPEESProducer
p1974
g0
(g1422
g2
Ntp1975
Rp1976
(dp1977
g17
g1515
sg18
(lp1978
g1427
ag1517
ag1518
asg24
I00
sg25
Nsg1427
g0
(g26
g2
Ntp1979
Rp1980
(dp1981
g24
I00
sg30
I01
sg31
I00
sg32
VstripCPE
p1982
sbsg31
I00
sg1517
g0
(g26
g2
Ntp1983
Rp1984
(dp1985
g24
I00
sg30
I01
sg31
I00
sg32
VSimpleStripCPE
p1986
sbsg1518
g0
(g208
g2
Ntp1987
Rp1988
(dp1989
g24
I00
sg30
I01
sg31
I00
sg18
(lp1990
sg25
Nsbsg44
g66
sg46
I55
sg47
g1974
sbsVCSCGeometryESModule
p1991
g0
(g1422
g2
Ntp1992
Rp1993
(dp1994
g17
g1991
sg18
(lp1995
VfromDDD
p1996
aVfromDD4hep
p1997
aValignmentsLabel
p1998
ag537
aVuseRealWireGeometry
p1999
aVuseOnlyWiresInME1a
p2000
aVuseGangedStripsInME1a
p2001
aVuseCentreTIOffsets
p2002
aVapplyAlignment
p2003
aVdebugV
p2004
asg24
I00
sg25
Nsg1996
g0
(g262
g2
Ntp2005
Rp2006
(dp2007
g24
I00
sg30
I01
sg31
I00
sg32
I00
sbsg31
I00
sg1997
g0
(g262
g2
Ntp2008
Rp2009
(dp2010
g24
I00
sg30
I01
sg31
I00
sg32
I00
sbsg1998
g0
(g26
g2
Ntp2011
Rp2012
(dp2013
g24
I00
sg30
I01
sg31
I00
sg32
g43
sbsg537
g0
(g26
g2
Ntp2014
Rp2015
(dp2016
g24
I00
sg30
I01
sg31
I00
sg32
g43
sbsg1999
g0
(g262
g2
Ntp2017
Rp2018
(dp2019
g24
I00
sg30
I01
sg31
I00
sg32
I01
sbsg2000
g0
(g262
g2
Ntp2020
Rp2021
(dp2022
g24
I00
sg30
I01
sg31
I00
sg32
I00
sbsg2001
g0
(g262
g2
Ntp2023
Rp2024
(dp2025
g24
I00
sg30
I01
sg31
I00
sg32
I01
sbsg2002
g0
(g262
g2
Ntp2026
Rp2027
(dp2028
g24
I00
sg30
I01
sg31
I00
sg32
I00
sbsg2003
g0
(g262
g2
Ntp2029
Rp2030
(dp2031
g24
I00
sg30
I01
sg31
I00
sg32
I01
sbsg2004
g0
(g262
g2
Ntp2032
Rp2033
(dp2034
g24
I00
sg30
I00
sg31
I00
sg32
I00
sbsg44
g66
sg46
I55
sg47
g1991
sbsVCaloGeometryBuilder
p2035
g0
(g1422
g2
Ntp2036
Rp2037
(dp2038
g17
g2035
sg18
(lp2039
VSelectedCalos
p2040
asg24
I00
sg25
Nsg2040
g0
(g58
g59
(lp2041
VHCAL
p2042
aVZDC
p2043
aVCASTOR
p2044
aVEcalBarrel
p2045
aVEcalEndcap
p2046
aVEcalPreshower
p2047
aVTOWER
p2048
atp2049
Rp2050
(dp2051
g24
I00
sg30
I01
sg31
I00
sg65
I1
sbsg31
I00
sg44
g66
sg46
I55
sg47
g2035
sbsVCaloTopologyBuilder
p2052
g0
(g1422
g2
Ntp2053
Rp2054
(dp2055
g17
g2052
sg18
(lp2056
sg24
I00
sg25
Nsg31
I00
sg44
g66
sg46
I55
sg47
g2052
sbsVCaloTowerGeometryFromDBEP
p2057
g0
(g1422
g2
Ntp2058
Rp2059
(dp2060
g17
g2057
sg18
(lp2061
g2003
asg24
I00
sg25
Nsg2003
g0
(g262
g2
Ntp2062
Rp2063
(dp2064
g24
I00
sg30
I01
sg31
I00
sg32
I00
sbsg31
I00
sg44
g66
sg46
I55
sg47
g2057
sbsVCaloTowerTopologyEP
p2065
g0
(g1422
g2
Ntp2066
Rp2067
(dp2068
g17
g2065
sg18
(lp2069
sg24
I00
sg25
Nsg31
I00
sg44
g66
sg46
I55
sg47
g2065
sbsVCastorGeometryFromDBEP
p2070
g0
(g1422
g2
Ntp2071
Rp2072
(dp2073
g17
g2070
sg18
(lp2074
g2003
asg24
I00
sg25
Nsg2003
g0
(g262
g2
Ntp2075
Rp2076
(dp2077
g24
I00
sg30
I01
sg31
I00
sg32
I00
sbsg31
I00
sg44
g66
sg46
I55
sg47
g2070
sbsVDTGeometryESModule
p2078
g0
(g1422
g2
Ntp2079
Rp2080
(dp2081
g17
g2078
sg18
(lp2082
g1996
ag1997
aVDDDetector
p2083
ag1998
ag537
aVattribute
p2084
aVvalue
p2085
ag2003
asg24
I00
sg25
Nsg1996
g0
(g262
g2
Ntp2086
Rp2087
(dp2088
g24
I00
sg30
I01
sg31
I01
sg32
I00
sbsg31
I01
sg1997
g0
(g262
g2
Ntp2089
Rp2090
(dp2091
g24
I00
sg30
I01
sg31
I00
sg32
I00
sbsg2083
g0
(cFWCore.ParameterSet.Types
ESInputTag
p2092
g2
Ntp2093
Rp2094
(dp2095
g24
I00
sg30
I01
sg31
I00
sV_ESInputTag__moduleLabel
p2096
g43
sV_ESInputTag__data
p2097
g43
sbsg1998
g0
(g26
g2
Ntp2098
Rp2099
(dp2100
g24
I00
sg30
I01
sg31
I00
sg32
g43
sbsg537
g0
(g26
g2
Ntp2101
Rp2102
(dp2103
g24
I00
sg30
I01
sg31
I00
sg32
g43
sbsg2084
g0
(g26
g2
Ntp2104
Rp2105
(dp2106
g24
I00
sg30
I01
sg31
I00
sg32
VMuStructure
p2107
sbsg2085
g0
(g26
g2
Ntp2108
Rp2109
(dp2110
g24
I00
sg30
I01
sg31
I00
sg32
VMuonBarrelDT
p2111
sbsg2003
g0
(g262
g2
Ntp2112
Rp2113
(dp2114
g24
I00
sg30
I01
sg31
I00
sg32
I01
sbsg44
g66
sg46
I55
sg47
g2078
sbsVEcalBarrelGeometryFromDBEP
p2115
g0
(g1422
g2
Ntp2116
Rp2117
(dp2118
g17
g2115
sg18
(lp2119
g2003
asg24
I00
sg25
Nsg2003
g0
(g262
g2
Ntp2120
Rp2121
(dp2122
g24
I00
sg30
I01
sg31
I01
sg32
I01
sbsg31
I01
sg44
g66
sg46
I55
sg47
g2115
sbsVEcalElectronicsMappingBuilder
p2123
g0
(g1422
g2
Ntp2124
Rp2125
(dp2126
g17
g2123
sg18
(lp2127
sg24
I00
sg25
Nsg31
I00
sg44
g66
sg46
I55
sg47
g2123
sbsVEcalEndcapGeometryFromDBEP
p2128
g0
(g1422
g2
Ntp2129
Rp2130
(dp2131
g17
g2128
sg18
(lp2132
g2003
asg24
I00
sg25
Nsg2003
g0
(g262
g2
Ntp2133
Rp2134
(dp2135
g24
I00
sg30
I01
sg31
I01
sg32
I01
sbsg31
I01
sg44
g66
sg46
I55
sg47
g2128
sbsVEcalPreshowerGeometryFromDBEP
p2136
g0
(g1422
g2
Ntp2137
Rp2138
(dp2139
g17
g2136
sg18
(lp2140
g2003
asg24
I00
sg25
Nsg2003
g0
(g262
g2
Ntp2141
Rp2142
(dp2143
g24
I00
sg30
I01
sg31
I01
sg32
I01
sbsg31
I01
sg44
g66
sg46
I55
sg47
g2136
sbsVEcalTrigTowerConstituentsMapBuilder
p2144
g0
(g1422
g2
Ntp2145
Rp2146
(dp2147
g17
g2144
sg18
(lp2148
VMapFile
p2149
asg24
I00
sg25
Nsg2149
g0
(g26
g2
Ntp2150
Rp2151
(dp2152
g24
I00
sg30
I00
sg31
I00
sg32
VGeometry/EcalMapping/data/EndCap_TTMap.txt
p2153
sbsg31
I00
sg44
g66
sg46
I55
sg47
g2144
sbsVGlobalTrackingGeometryESProducer
p2154
g0
(g1422
g2
Ntp2155
Rp2156
(dp2157
g17
g2154
sg18
(lp2158
sg24
I00
sg25
Nsg31
I00
sg44
g66
sg46
I55
sg47
g2154
sbsVHcalAlignmentEP
p2159
g0
(g1422
g2
Ntp2160
Rp2161
(dp2162
g17
g2159
sg18
(lp2163
sg24
I00
sg25
Nsg31
I00
sg44
g66
sg46
I55
sg47
g2159
sbsVHcalGeometryFromDBEP
p2164
g0
(g1422
g2
Ntp2165
Rp2166
(dp2167
g17
g2164
sg18
(lp2168
g2003
asg24
I00
sg25
Nsg2003
g0
(g262
g2
Ntp2169
Rp2170
(dp2171
g24
I00
sg30
I01
sg31
I01
sg32
I01
sbsg31
I01
sg44
g66
sg46
I55
sg47
g2164
sbsVMuonDetLayerGeometryESProducer
p2172
g0
(g1422
g2
Ntp2173
Rp2174
(dp2175
g17
g2172
sg18
(lp2176
sg24
I00
sg25
Nsg31
I00
sg44
g66
sg46
I55
sg47
g2172
sbsVRPCGeometryESModule
p2177
g0
(g1422
g2
Ntp2178
Rp2179
(dp2180
g17
g2177
sg18
(lp2181
g1996
ag1997
asg24
I00
sg25
Nsg1996
g0
(g262
g2
Ntp2182
Rp2183
(dp2184
g24
I00
sg30
I00
sg31
I00
sg32
I00
sbsg31
I00
sg1997
g0
(g262
g2
Ntp2185
Rp2186
(dp2187
g24
I00
sg30
I00
sg31
I00
sg32
I00
sbsg44
g66
sg46
I55
sg47
g2177
sbsVTrackerAdditionalParametersPerDet
p2188
g0
(g1422
g2
Ntp2189
Rp2190
(dp2191
g17
VTrackerAdditionalParametersPerDetESModule
p2192
sg18
(lp2193
g537
asg24
I00
sg25
Nsg537
g0
(g26
g2
Ntp2194
Rp2195
(dp2196
g24
I00
sg30
I01
sg31
I00
sg32
g43
sbsg31
I00
sg44
g66
sg46
I55
sg47
g2188
sbsVTrackerRecoGeometryESProducer
p2197
g0
(g1422
g2
Ntp2198
Rp2199
(dp2200
g17
g2197
sg18
(lp2201
VusePhase2Stacks
p2202
asg24
I00
sg25
Nsg2202
g0
(g262
g2
Ntp2203
Rp2204
(dp2205
g24
I00
sg30
I01
sg31
I00
sg32
I00
sbsg31
I00
sg44
g66
sg46
I55
sg47
g2197
sbsVZdcGeometryFromDBEP
p2206
g0
(g1422
g2
Ntp2207
Rp2208
(dp2209
g17
g2206
sg18
(lp2210
g2003
asg24
I00
sg25
Nsg2003
g0
(g262
g2
Ntp2211
Rp2212
(dp2213
g24
I00
sg30
I01
sg31
I00
sg32
I00
sbsg31
I00
sg44
g66
sg46
I55
sg47
g2206
sbsVfakeForIdealAlignment
p2214
g0
(g1422
g2
Ntp2215
Rp2216
(dp2217
g17
VFakeAlignmentProducer
p2218
sg18
(lp2219
g537
asg24
I00
sg25
Nsg537
g0
(g26
g2
Ntp2220
Rp2221
(dp2222
g24
I00
sg30
I01
sg31
I01
sg32
VfakeForIdeal
p2223
sbsg31
I01
sg44
V/cvmfs/cms.cern.ch/slc7_amd64_gcc10/cms/cmssw/CMSSW_12_4_3/python/Alignment/CommonAlignmentProducer/fakeForIdealAlignmentProducer_cfi.py
p2224
sg46
I5
sg47
g2214
sbsVhcalDDDRecConstants
p2225
g0
(g1422
g2
Ntp2226
Rp2227
(dp2228
g17
VHcalDDDRecConstantsESModule
p2229
sg18
(lp2230
g537
asg24
I00
sg25
Nsg537
g0
(g26
g2
Ntp2231
Rp2232
(dp2233
g24
I00
sg30
I01
sg31
I00
sg32
g43
sbsg31
I00
sg44
g66
sg46
I55
sg47
g2225
sbsVhcalDDDSimConstants
p2234
g0
(g1422
g2
Ntp2235
Rp2236
(dp2237
g17
VHcalDDDSimConstantsESModule
p2238
sg18
(lp2239
g537
asg24
I00
sg25
Nsg537
g0
(g26
g2
Ntp2240
Rp2241
(dp2242
g24
I00
sg30
I01
sg31
I00
sg32
g43
sbsg31
I00
sg44
g66
sg46
I55
sg47
g2234
sbsVhcalTopologyIdeal
p2243
g0
(g1422
g2
Ntp2244
Rp2245
(dp2246
g17
VHcalTopologyIdealEP
p2247
sg18
(lp2248
VExclude
p2249
aVMergePosition
p2250
ag537
asg24
I00
sg25
Nsg2249
g0
(g26
g2
Ntp2251
Rp2252
(dp2253
g24
I00
sg30
I00
sg31
I00
sg32
g43
sbsg31
I00
sg2250
g0
(g262
g2
Ntp2254
Rp2255
(dp2256
g24
I00
sg30
I00
sg31
I00
sg32
I00
sbsg537
g0
(g26
g2
Ntp2257
Rp2258
(dp2259
g24
I00
sg30
I01
sg31
I00
sg32
g43
sbsg44
g66
sg46
I55
sg47
g2243
sbsVidealForDigiCSCGeometry
p2260
g0
(g1422
g2
Ntp2261
Rp2262
(dp2263
g17
g1991
sg18
(lp2264
g1996
ag1997
ag1998
ag537
ag1999
ag2000
ag2001
ag2002
ag2003
ag2004
asg24
I00
sg25
Nsg1996
g0
(g262
g2
Ntp2265
Rp2266
(dp2267
g24
I00
sg30
I01
sg31
I00
sg32
I00
sbsg31
I01
sg1997
g0
(g262
g2
Ntp2268
Rp2269
(dp2270
g24
I00
sg30
I01
sg31
I00
sg32
I00
sbsg1998
g0
(g26
g2
Ntp2271
Rp2272
(dp2273
g24
I00
sg30
I01
sg31
I01
sg32
g2223
sbsg537
g0
(g26
g2
Ntp2274
Rp2275
(dp2276
g24
I00
sg30
I01
sg31
I01
sg32
VidealForDigi
p2277
sbsg1999
g0
(g262
g2
Ntp2278
Rp2279
(dp2280
g24
I00
sg30
I01
sg31
I00
sg32
I01
sbsg2000
g0
(g262
g2
Ntp2281
Rp2282
(dp2283
g24
I00
sg30
I01
sg31
I00
sg32
I00
sbsg2001
g0
(g262
g2
Ntp2284
Rp2285
(dp2286
g24
I00
sg30
I01
sg31
I00
sg32
I01
sbsg2002
g0
(g262
g2
Ntp2287
Rp2288
(dp2289
g24
I00
sg30
I01
sg31
I00
sg32
I00
sbsg2003
g0
(g262
g2
Ntp2290
Rp2291
(dp2292
g24
I00
sg30
I01
sg31
I01
sg32
I00
sbsg2004
g0
(g262
g2
Ntp2293
Rp2294
(dp2295
g24
I00
sg30
I00
sg31
I00
sg32
I00
sbsg44
V/cvmfs/cms.cern.ch/slc7_amd64_gcc10/cms/cmssw/CMSSW_12_4_3/python/Geometry/CSCGeometryBuilder/idealForDigiCscGeometryDB_cff.py
p2296
sg46
I8
sg47
g2260
sbsVidealForDigiDTGeometry
p2297
g0
(g1422
g2
Ntp2298
Rp2299
(dp2300
g17
g2078
sg18
(lp2301
g1996
ag1997
ag2083
ag1998
ag537
ag2084
ag2085
ag2003
asg24
I00
sg25
Nsg1996
g0
(g262
g2
Ntp2302
Rp2303
(dp2304
g24
I00
sg30
I01
sg31
I01
sg32
I00
sbsg31
I01
sg1997
g0
(g262
g2
Ntp2305
Rp2306
(dp2307
g24
I00
sg30
I01
sg31
I00
sg32
I00
sbsg2083
g0
(g2092
g2
Ntp2308
Rp2309
(dp2310
g24
I00
sg30
I01
sg31
I00
sg2096
g43
sg2097
g43
sbsg1998
g0
(g26
g2
Ntp2311
Rp2312
(dp2313
g24
I00
sg30
I01
sg31
I01
sg32
g2223
sbsg537
g0
(g26
g2
Ntp2314
Rp2315
(dp2316
g24
I00
sg30
I01
sg31
I01
sg32
g2277
sbsg2084
g0
(g26
g2
Ntp2317
Rp2318
(dp2319
g24
I00
sg30
I01
sg31
I00
sg32
g2107
sbsg2085
g0
(g26
g2
Ntp2320
Rp2321
(dp2322
g24
I00
sg30
I01
sg31
I00
sg32
g2111
sbsg2003
g0
(g262
g2
Ntp2323
Rp2324
(dp2325
g24
I00
sg30
I01
sg31
I01
sg32
I00
sbsg44
V/cvmfs/cms.cern.ch/slc7_amd64_gcc10/cms/cmssw/CMSSW_12_4_3/python/Geometry/DTGeometryBuilder/idealForDigiDtGeometryDB_cff.py
p2326
sg46
I8
sg47
g2297
sbsVidealForDigiTrackerGeometry
p2327
g0
(g1422
g2
Ntp2328
Rp2329
(dp2330
g17
VTrackerDigiGeometryESModule
p2331
sg18
(lp2332
g537
ag1996
ag2003
ag1998
asg24
I00
sg25
Nsg537
g0
(g26
g2
Ntp2333
Rp2334
(dp2335
g24
I00
sg30
I01
sg31
I01
sg32
g2277
sbsg31
I01
sg1996
g0
(g262
g2
Ntp2336
Rp2337
(dp2338
g24
I00
sg30
I01
sg31
I00
sg32
I00
sbsg2003
g0
(g262
g2
Ntp2339
Rp2340
(dp2341
g24
I00
sg30
I01
sg31
I01
sg32
I00
sbsg1998
g0
(g26
g2
Ntp2342
Rp2343
(dp2344
g24
I00
sg30
I01
sg31
I01
sg32
g2223
sbsg44
V/cvmfs/cms.cern.ch/slc7_amd64_gcc10/cms/cmssw/CMSSW_12_4_3/python/Geometry/TrackerGeometryBuilder/idealForDigiTrackerGeometryDB_cff.py
p2345
sg46
I8
sg47
g2327
sbsVmuonGeometryConstants
p2346
g0
(g1422
g2
Ntp2347
Rp2348
(dp2349
g17
VMuonGeometryConstantsESModule
p2350
sg18
(lp2351
g1997
ag537
asg24
I00
sg25
Nsg1997
g0
(g262
g2
Ntp2352
Rp2353
(dp2354
g24
I00
sg30
I01
sg31
I00
sg32
I00
sbsg31
I00
sg537
g0
(g26
g2
Ntp2355
Rp2356
(dp2357
g24
I00
sg30
I01
sg31
I00
sg32
g43
sbsg44
g66
sg46
I55
sg47
g2346
sbsVtrackerGeometryDB
p2358
g0
(g1422
g2
Ntp2359
Rp2360
(dp2361
g17
g2331
sg18
(lp2362
g537
ag1996
ag2003
ag1998
asg24
I00
sg25
Nsg537
g0
(g26
g2
Ntp2363
Rp2364
(dp2365
g24
I00
sg30
I01
sg31
I00
sg32
g43
sbsg31
I00
sg1996
g0
(g262
g2
Ntp2366
Rp2367
(dp2368
g24
I00
sg30
I01
sg31
I00
sg32
I00
sbsg2003
g0
(g262
g2
Ntp2369
Rp2370
(dp2371
g24
I00
sg30
I01
sg31
I00
sg32
I01
sbsg1998
g0
(g26
g2
Ntp2372
Rp2373
(dp2374
g24
I00
sg30
I01
sg31
I00
sg32
g43
sbsg44
g66
sg46
I55
sg47
g2358
sbsVtrackerNumberingGeometryDB
p2375
g0
(g1422
g2
Ntp2376
Rp2377
(dp2378
g17
VTrackerGeometricDetESModule
p2379
sg18
(lp2380
g1996
ag1997
ag537
asg24
I00
sg25
Nsg1996
g0
(g262
g2
Ntp2381
Rp2382
(dp2383
g24
I00
sg30
I01
sg31
I00
sg32
I00
sbsg31
I00
sg1997
g0
(g262
g2
Ntp2384
Rp2385
(dp2386
g24
I00
sg30
I01
sg31
I00
sg32
I00
sbsg537
g0
(g26
g2
Ntp2387
Rp2388
(dp2389
g24
I00
sg30
I01
sg31
I00
sg32
g43
sbsg44
g66
sg46
I55
sg47
g2375
sbsVtrackerTopology
p2390
g0
(g1422
g2
Ntp2391
Rp2392
(dp2393
g17
VTrackerTopologyEP
p2394
sg18
(lp2395
g537
asg24
I00
sg25
Nsg537
g0
(g26
g2
Ntp2396
Rp2397
(dp2398
g24
I00
sg30
I01
sg31
I00
sg32
g43
sbsg31
I00
sg44
g66
sg46
I55
sg47
g2390
sbssV_Process__esprefers
p2399
(dp2400
Ves_prefer_hcalHardcode
p2401
g0
(cFWCore.ParameterSet.Modules
ESPrefer
p2402
g2
Ntp2403
Rp2404
(dp2405
g17
g707
sg18
(lp2406
sg24
I00
sg25
Nsg31
I00
sg44
g66
sg46
I91
sV_targetLabel
p2407
g703
sg47
g2401
sbssV_Process__aliases
p2408
(dp2409
sV_Process__psets
p2410
(dp2411
VmaxLuminosityBlocks
p2412
g0
(g208
g2
Ntp2413
Rp2414
(dp2415
g24
I00
sg30
I00
sg31
I00
sg18
(lp2416
Vinput
p2417
asg25
Nsg2417
g0
(g33
g2
Ntp2418
Rp2419
(dp2420
g24
I00
sg30
I00
sg31
I00
sg32
I-1
sbsg47
g2412
sbsVCondDB
p2421
g0
(g208
g2
Ntp2422
Rp2423
(dp2424
g24
I00
sg30
I01
sg31
I00
sg18
(lp2425
g458
ag459
asg25
Nsg458
g0
(g208
g2
Ntp2426
Rp2427
(dp2428
g24
I00
sg30
I01
sg31
I00
sg18
(lp2429
g474
ag475
ag476
ag477
ag478
asg25
Nsg474
g0
(g26
g2
Ntp2430
Rp2431
(dp2432
g24
I00
sg30
I00
sg31
I00
sg32
g43
sbsg475
g0
(g33
g2
Ntp2433
Rp2434
(dp2435
g24
I00
sg30
I00
sg31
I00
sg32
I0
sbsg476
g0
(g26
g2
Ntp2436
Rp2437
(dp2438
g24
I00
sg30
I00
sg31
I00
sg32
g43
sbsg477
g0
(g33
g2
Ntp2439
Rp2440
(dp2441
g24
I00
sg30
I00
sg31
I00
sg32
I0
sbsg478
g0
(g33
g2
Ntp2442
Rp2443
(dp2444
g24
I00
sg30
I00
sg31
I00
sg32
I0
sbsbsg459
g0
(g26
g2
Ntp2445
Rp2446
(dp2447
g24
I00
sg30
I01
sg31
I00
sg32
g43
sbsg47
g2421
sbsg717
g769
sVoptions
p2448
g0
(g208
g2
Ntp2449
Rp2450
(dp2451
g24
I00
sg30
I00
sg31
I01
sg18
(lp2452
VnumberOfThreads
p2453
aVnumberOfStreams
p2454
aVnumberOfConcurrentRuns
p2455
aVnumberOfConcurrentLuminosityBlocks
p2456
aVeventSetup
p2457
aVaccelerators
p2458
aVwantSummary
p2459
aVfileMode
p2460
aVforceEventSetupCacheClearOnNewRun
p2461
aVthrowIfIllegalParameter
p2462
aVprintDependencies
p2463
aVdeleteNonConsumedUnscheduledModules
p2464
aVsizeOfStackForThreadsInKB
p2465
aVRethrow
p2466
aVSkipEvent
p2467
aVFailPath
p2468
aVIgnoreCompletely
p2469
aVcanDeleteEarly
p2470
aVdumpOptions
p2471
aVallowUnscheduled
p2472
aVemptyRunLumiMode
p2473
aVmakeTriggerResults
p2474
asg25
Nsg2453
g0
(g1482
g2
Ntp2475
Rp2476
(dp2477
g24
I00
sg30
I00
sg31
I00
sg32
I1
sbsg2454
g0
(g1482
g2
Ntp2478
Rp2479
(dp2480
g24
I00
sg30
I00
sg31
I00
sg32
I0
sbsg2455
g0
(g1482
g2
Ntp2481
Rp2482
(dp2483
g24
I00
sg30
I00
sg31
I00
sg32
I1
sbsg2456
g0
(g1482
g2
Ntp2484
Rp2485
(dp2486
g24
I00
sg30
I00
sg31
I00
sg32
I0
sbsg2457
g0
(g208
g2
Ntp2487
Rp2488
(dp2489
g24
I00
sg30
I00
sg31
I00
sg18
(lp2490
VnumberOfConcurrentIOVs
p2491
aVforceNumberOfConcurrentIOVs
p2492
asg25
Nsg2491
g0
(g1482
g2
Ntp2493
Rp2494
(dp2495
g24
I00
sg30
I00
sg31
I00
sg32
I0
sbsg2492
g0
(g208
g2
Ntp2496
Rp2497
(dp2498
g24
I00
sg30
I00
sg31
I00
sg18
(lp2499
sg25
g0
(cFWCore.ParameterSet.Types
_RequiredParameter
p2500
g2
Ntp2501
Rp2502
(dp2503
g24
I00
sg30
I00
sg31
I00
sg202
g1482
sg222
Nsbsbsbsg2458
g0
(g58
g59
(lp2504
V*
p2505
atp2506
Rp2507
(dp2508
g24
I00
sg30
I00
sg31
I00
sg65
I1
sbsg2459
g0
(g262
g2
Ntp2509
Rp2510
(dp2511
g24
I00
sg30
I00
sg31
I00
sg32
I01
sbsg2460
g0
(g26
g2
Ntp2512
Rp2513
(dp2514
g24
I00
sg30
I00
sg31
I00
sg32
VFULLMERGE
p2515
sbsg2461
g0
(g262
g2
Ntp2516
Rp2517
(dp2518
g24
I00
sg30
I00
sg31
I00
sg32
I00
sbsg2462
g0
(g262
g2
Ntp2519
Rp2520
(dp2521
g24
I00
sg30
I00
sg31
I00
sg32
I01
sbsg2463
g0
(g262
g2
Ntp2522
Rp2523
(dp2524
g24
I00
sg30
I00
sg31
I00
sg32
I00
sbsg2464
g0
(g262
g2
Ntp2525
Rp2526
(dp2527
g24
I00
sg30
I00
sg31
I00
sg32
I01
sbsg2465
g0
(g198
g2
Ntp2528
Rp2529
(dp2530
g24
I00
sg30
I00
sg31
I00
sg202
g1482
sg222
Nsbsg2466
g0
(g58
g59
(lp2531
tp2532
Rp2533
(dp2534
g24
I00
sg30
I00
sg31
I00
sg65
I1
sbsg2467
g0
(g58
g59
(lp2535
tp2536
Rp2537
(dp2538
g24
I00
sg30
I00
sg31
I00
sg65
I1
sbsg2468
g0
(g58
g59
(lp2539
tp2540
Rp2541
(dp2542
g24
I00
sg30
I00
sg31
I00
sg65
I1
sbsg2469
g0
(g58
g59
(lp2543
tp2544
Rp2545
(dp2546
g24
I00
sg30
I00
sg31
I00
sg65
I1
sbsg2470
g0
(g58
g59
(lp2547
tp2548
Rp2549
(dp2550
g24
I00
sg30
I00
sg31
I00
sg65
I1
sbsg2471
g0
(g262
g2
Ntp2551
Rp2552
(dp2553
g24
I00
sg30
I00
sg31
I00
sg32
I00
sbsg2472
g0
(cFWCore.ParameterSet.Types
_ObsoleteParameter
p2554
g2
Ntp2555
Rp2556
(dp2557
g24
I00
sg30
I00
sg31
I00
sg202
g262
sg222
Nsbsg2473
g0
(g2554
g2
Ntp2558
Rp2559
(dp2560
g24
I00
sg30
I00
sg31
I00
sg202
g26
sg222
Nsbsg2474
g0
(g2554
g2
Ntp2561
Rp2562
(dp2563
g24
I00
sg30
I00
sg31
I00
sg202
g262
sg222
Nsbsg47
g2448
sbsVmaxEvents
p2564
g0
(g208
g2
Ntp2565
Rp2566
(dp2567
g24
I00
sg30
I00
sg31
I01
sg18
(lp2568
g2417
ag402
asg25
Nsg2417
g0
(g33
g2
Ntp2569
Rp2570
(dp2571
g24
I00
sg30
I00
sg31
I00
sg32
I-1
sbsg402
g0
(g198
g2
Ntp2572
Rp2573
(dp2574
g24
I00
sg30
I00
sg31
I00
sg202
g0
(cFWCore.ParameterSet.Types
_AllowedParameterTypes
p2575
g2
Ntp2576
Rp2577
(dp2578
V_AllowedParameterTypes__types
p2579
(g33
g208
tp2580
sV_AllowedParameterTypes__value
p2581
NsV__name__
p2582
Vallowed(cms.int32,cms.PSet)
p2583
sbsg222
Nsbsg47
g2564
sbssV_Process__vpsets
p2584
(dp2585
sV_cloneToObjectDict
p2586
(dp2587
L139779284436880L
g0
(g208
g2
Ntp2588
Rp2589
(dp2590
g24
I00
sg30
I00
sg31
I01
sg18
(lp2591
g2453
ag2454
ag2455
ag2456
ag2457
ag2458
ag2459
ag2460
ag2461
ag2462
ag2463
ag2464
ag2465
ag2466
ag2467
ag2468
ag2469
ag2470
ag2471
ag2472
ag2473
ag2474
asg25
Nsg2453
g0
(g1482
g2
Ntp2592
Rp2593
(dp2594
g24
I00
sg30
I00
sg31
I00
sg32
I1
sbsg2454
g0
(g1482
g2
Ntp2595
Rp2596
(dp2597
g24
I00
sg30
I00
sg31
I00
sg32
I0
sbsg2455
g0
(g1482
g2
Ntp2598
Rp2599
(dp2600
g24
I00
sg30
I00
sg31
I00
sg32
I1
sbsg2456
g0
(g1482
g2
Ntp2601
Rp2602
(dp2603
g24
I00
sg30
I00
sg31
I00
sg32
I0
sbsg2457
g0
(g208
g2
Ntp2604
Rp2605
(dp2606
g24
I00
sg30
I00
sg31
I00
sg18
(lp2607
g2491
ag2492
asg25
Nsg2491
g0
(g1482
g2
Ntp2608
Rp2609
(dp2610
g24
I00
sg30
I00
sg31
I00
sg32
I0
sbsg2492
g0
(g208
g2
Ntp2611
Rp2612
(dp2613
g24
I00
sg30
I00
sg31
I00
sg18
(lp2614
sg25
g0
(g2500
g2
Ntp2615
Rp2616
(dp2617
g24
I00
sg30
I00
sg31
I00
sg202
g1482
sg222
Nsbsbsbsg2458
g0
(g58
g59
(lp2618
g2505
atp2619
Rp2620
(dp2621
g24
I00
sg30
I00
sg31
I00
sg65
I1
sbsg2459
g0
(g262
g2
Ntp2622
Rp2623
(dp2624
g24
I00
sg30
I00
sg31
I00
sg32
I00
sbsg2460
g0
(g26
g2
Ntp2625
Rp2626
(dp2627
g24
I00
sg30
I00
sg31
I00
sg32
g2515
sbsg2461
g0
(g262
g2
Ntp2628
Rp2629
(dp2630
g24
I00
sg30
I00
sg31
I00
sg32
I00
sbsg2462
g0
(g262
g2
Ntp2631
Rp2632
(dp2633
g24
I00
sg30
I00
sg31
I00
sg32
I01
sbsg2463
g0
(g262
g2
Ntp2634
Rp2635
(dp2636
g24
I00
sg30
I00
sg31
I00
sg32
I00
sbsg2464
g0
(g262
g2
Ntp2637
Rp2638
(dp2639
g24
I00
sg30
I00
sg31
I00
sg32
I01
sbsg2465
g0
(g198
g2
Ntp2640
Rp2641
(dp2642
g24
I00
sg30
I00
sg31
I00
sg202
g1482
sg222
Nsbsg2466
g0
(g58
g59
(lp2643
tp2644
Rp2645
(dp2646
g24
I00
sg30
I00
sg31
I00
sg65
I1
sbsg2467
g0
(g58
g59
(lp2647
tp2648
Rp2649
(dp2650
g24
I00
sg30
I00
sg31
I00
sg65
I1
sbsg2468
g0
(g58
g59
(lp2651
tp2652
Rp2653
(dp2654
g24
I00
sg30
I00
sg31
I00
sg65
I1
sbsg2469
g0
(g58
g59
(lp2655
tp2656
Rp2657
(dp2658
g24
I00
sg30
I00
sg31
I00
sg65
I1
sbsg2470
g0
(g58
g59
(lp2659
tp2660
Rp2661
(dp2662
g24
I00
sg30
I00
sg31
I00
sg65
I1
sbsg2471
g0
(g262
g2
Ntp2663
Rp2664
(dp2665
g24
I00
sg30
I00
sg31
I00
sg32
I00
sbsg2472
g0
(g2554
g2
Ntp2666
Rp2667
(dp2668
g24
I00
sg30
I00
sg31
I00
sg202
g262
sg222
Nsbsg2473
g0
(g2554
g2
Ntp2669
Rp2670
(dp2671
g24
I00
sg30
I00
sg31
I00
sg202
g26
sg222
Nsbsg2474
g0
(g2554
g2
Ntp2672
Rp2673
(dp2674
g24
I00
sg30
I00
sg31
I00
sg202
g262
sg222
Nsbsg47
NsbsL139779279543216L
g0
(g208
g2
Ntp2675
Rp2676
(dp2677
g24
I00
sg30
I00
sg31
I01
sg18
(lp2678
g2417
ag402
asg25
Nsg2417
g0
(g198
g2
Ntp2679
Rp2680
(dp2681
g24
I00
sg30
I00
sg31
I00
sg202
g33
sg222
Nsbsg402
g0
(g198
g2
Ntp2682
Rp2683
(dp2684
g24
I00
sg30
I00
sg31
I00
sg202
g0
(g2575
g2
Ntp2685
Rp2686
(dp2687
g2579
(g33
g208
tp2688
sg2581
Nsg2582
Vallowed(cms.int32,cms.PSet)
p2689
sbsg222
Nsbsg47
NsbsL139779444507264L
g2414
sL139779279543264L
g1424
sL139779286448832L
g1434
sL139779285470320L
g1454
sL139779277830272L
g1470
sL139779280308976L
g2423
sL139779281842960L
g1478
sL139779281569872L
g1488
sL139779280308112L
g454
sL139779286707072L
g769
sL139779286706832L
g534
sL139779277848240L
g1496
sL139779277847376L
g1513
sL139779277851712L
g1585
sL139779277852240L
g1650
sL139779277830560L
g705
sL139779277830320L
g2404
sL139779281843872L
g1666
sL139779277874752L
g1681
sL139779277873600L
g1690
sL139779277844832L
g1729
sL139779277784448L
g1772
sL139779277783680L
g1825
sL139779277875280L
g1864
sL139779277830464L
g1970
sL139779277846320L
g1976
sL139779277964912L
g1993
sL139779277502112L
g2037
sL139779277995600L
g2054
sL139779277529440L
g2059
sL139779277530064L
g2067
sL139779277531600L
g2072
sL139779277992240L
g2080
sL139779277503984L
g2117
sL139779277501824L
g2125
sL139779277503408L
g2130
sL139779277503696L
g2138
sL139779277995936L
g2146
sL139779277993872L
g2156
sL139779277529392L
g2161
sL139779277503264L
g2166
sL139779277995504L
g2174
sL139779277965152L
g2179
sL139779277994400L
g2190
sL139779277874704L
g2199
sL139779277531312L
g2208
sL139779277532176L
g1399
sL139779277599984L
g2216
sL139779277599072L
g2227
sL139779277532848L
g2236
sL139779277530448L
g2245
sL139779277533088L
g2262
sL139779277532704L
g2299
sL139779277532416L
g2329
sL139779277501008L
g2348
sL139779277993728L
g2360
sL139779277992816L
g2377
sL139779277994928L
g2392
sL139779277645472L
g15
sL139779277849504L
g166
sL139779279542928L
g2450
sL139779277689808L
g2566
sL139779277690288L
g76
sL139779277690528L
g126
ssV_Process__InExtendCall
p2690
I00
sV_Process__partialschedules
p2691
(dp2692
sV_Process__isStrict
p2693
I00
sV_Process__modifiers
p2694
(tsV_Process__accelerators
p2695
(dp2696
sg2412
g2414
sg183
g186
sg1421
g1424
sg1432
g1434
sg1452
g1454
sg1468
g1470
sg2421
g2423
sg1476
g1478
sg1486
g1488
sg451
g454
sg717
g769
sg532
g534
sg1494
g1496
sg1511
g1513
sg1583
g1585
sg1648
g1650
sg703
g705
sg2401
g2404
sg1664
g1666
sg1679
g1681
sg1688
g1690
sg1727
g1729
sg1770
g1772
sg1823
g1825
sg1862
g1864
sg1968
g1970
sg1974
g1976
sg1991
g1993
sg2035
g2037
sg2052
g2054
sg2057
g2059
sg2065
g2067
sg2070
g2072
sg2078
g2080
sg2115
g2117
sg2123
g2125
sg2128
g2130
sg2136
g2138
sg2144
g2146
sg2154
g2156
sg2159
g2161
sg2164
g2166
sg2172
g2174
sg2177
g2179
sg2188
g2190
sg2197
g2199
sg2206
g2208
sg1397
g1399
sg2214
g2216
sg2225
g2227
sg2234
g2236
sg2243
g2245
sg2260
g2262
sg2297
g2299
sg2327
g2329
sg2346
g2348
sg2358
g2360
sg2375
g2377
sg2390
g2392
sg434
g436
sg12
g15
sg163
g166
sg2448
g2450
sg2564
g2566
sVsource
p2697
g53
sg55
g53
sg439
g441
sg73
g76
sg123
g126
sb.